S'3.2'
p1
.S'SLR'
p1
.S'vW\xb4.*/\xc9\x1c\x17U\xfd\x05\xf9s\xaa\x7f'
p1
.(dp1
I0
(dp2
S'EXCEPTION'
p3
I-38
sS'SHORT'
p4
I-38
sS'CONST'
p5
I-38
sS'SETLIKE'
p6
I-38
sS'MAPLIKE'
p7
I-38
sS'VOID'
p8
I-38
sS'OBJECT'
p9
I-38
sS'UNSIGNED'
p10
I-38
sS'STATIC'
p11
I-38
sS'DATE'
p12
I-38
sS'BYTE'
p13
I-38
sS'SETTER'
p14
I-38
sS'DOMSTRING'
p15
I-38
sS'CREATOR'
p16
I-38
sS'('
I-38
sS'REQUIRED'
p17
I-38
sS'FROZENARRAY'
p18
I-38
sS'LONG'
p19
I-38
sS'READONLY'
p20
I-38
sS'SERIALIZER'
p21
I-38
sS'$end'
p22
I-2
sS'TYPEDEF'
p23
I-38
sS'string'
p24
I-38
sS'DICTIONARY'
p25
I-38
sS'SEQUENCE'
p26
I-38
sS'LEGACYITERABLE'
p27
I-38
sS'ENUM'
p28
I-38
sS'OCTET'
p29
I-38
sS'INHERIT'
p30
I-38
sS'LEGACYCALLER'
p31
I-38
sS'GETTER'
p32
I-38
sS'REGEXP'
p33
I-38
sS'['
I3
sS'OPTIONAL'
p34
I-38
sS'ITERABLE'
p35
I-38
sS'BYTESTRING'
p36
I-38
sS'PARTIAL'
p37
I-38
sS'STRINGIFIER'
p38
I-38
sS'ATTRIBUTE'
p39
I-38
sS'FLOAT'
p40
I-38
sS'CALLBACK'
p41
I-38
sS'BOOLEAN'
p42
I-38
sS'PROMISE'
p43
I-38
sS'error'
p44
I-38
sS'INTERFACE'
p45
I-38
sS'UNRESTRICTED'
p46
I-38
sS'identifier'
p47
I-38
sS'DOUBLE'
p48
I-38
sS'ANY'
p49
I-38
sS'DELETER'
p50
I-38
ssI1
(dp51
S'EXCEPTION'
p52
I13
sS'PARTIAL'
p53
I16
sS'DICTIONARY'
p54
I11
sS'ENUM'
p55
I12
sS'TYPEDEF'
p56
I15
sS'CALLBACK'
p57
I18
sS'error'
p58
I19
sS'INTERFACE'
p59
I20
sS'identifier'
p60
I21
ssI2
(dp61
S'$end'
p62
I0
ssI3
(dp63
S'identifier'
p64
I30
ssI4
(dp65
g23
I-8
sg37
I-8
sg25
I-8
sg28
I-8
sg3
I-8
sg41
I-8
sg44
I-8
sg45
I-8
sS'['
I-8
sg47
I-8
sg22
I-8
ssI5
(dp66
g23
I-3
sg37
I-3
sg25
I-3
sg28
I-3
sg3
I-3
sg41
I-3
sg44
I-3
sg45
I-3
sS'['
I-3
sg47
I-3
sg22
I-3
ssI6
(dp67
g23
I-5
sg37
I-5
sg25
I-5
sg28
I-5
sg3
I-5
sg41
I-5
sg44
I-5
sg45
I-5
sS'['
I-5
sg47
I-5
sg22
I-5
ssI7
(dp68
g23
I-7
sg37
I-7
sg25
I-7
sg28
I-7
sg3
I-7
sg41
I-7
sg44
I-7
sg45
I-7
sS'['
I-7
sg47
I-7
sg22
I-7
ssI8
(dp69
g23
I-17
sg37
I-17
sg25
I-17
sg28
I-17
sg3
I-17
sg41
I-17
sg44
I-17
sg45
I-17
sS'['
I-17
sg47
I-17
sg22
I-17
ssI9
(dp70
g3
I-38
sg4
I-38
sg5
I-38
sg6
I-38
sg7
I-38
sg8
I-38
sg9
I-38
sg10
I-38
sg11
I-38
sg12
I-38
sg13
I-38
sg14
I-38
sg15
I-38
sg16
I-38
sS'('
I-38
sg17
I-38
sg18
I-38
sg19
I-38
sg20
I-38
sg21
I-38
sg22
I-2
sg23
I-38
sg24
I-38
sg25
I-38
sg26
I-38
sg27
I-38
sg28
I-38
sg29
I-38
sg30
I-38
sg31
I-38
sg32
I-38
sg33
I-38
sS'['
I3
sg34
I-38
sg35
I-38
sg36
I-38
sg37
I-38
sg38
I-38
sg39
I-38
sg40
I-38
sg41
I-38
sg42
I-38
sg43
I-38
sg44
I-38
sg45
I-38
sg46
I-38
sg47
I-38
sg48
I-38
sg49
I-38
sg50
I-38
ssI10
(dp71
g23
I-6
sg37
I-6
sg25
I-6
sg28
I-6
sg3
I-6
sg41
I-6
sg44
I-6
sg45
I-6
sS'['
I-6
sg47
I-6
sg22
I-6
ssI11
(dp72
S'identifier'
p73
I33
sS'error'
p74
I32
ssI12
(dp75
S'identifier'
p76
I35
sS'error'
p77
I34
ssI13
(dp78
S'identifier'
p79
I36
ssI14
(dp80
g23
I-9
sg37
I-9
sg25
I-9
sg28
I-9
sg3
I-9
sg41
I-9
sg44
I-9
sg45
I-9
sS'['
I-9
sg47
I-9
sg22
I-9
ssI15
(dp81
g4
I-178
sg9
I-178
sg12
I-178
sg13
I-178
sg15
I-178
sS'('
I-178
sg10
I-178
sg19
I-178
sg18
I-178
sg26
I-178
sg29
I-178
sg33
I-178
sS'['
I39
sg47
I-178
sg48
I-178
sg40
I-178
sg42
I-178
sg43
I-178
sS'error'
p82
I38
sg46
I-178
sg36
I-178
sg49
I-178
ssI16
(dp83
S'INTERFACE'
p84
I44
sS'DICTIONARY'
p85
I41
sS'error'
p86
I43
ssI17
(dp87
g23
I-4
sg37
I-4
sg25
I-4
sg28
I-4
sg3
I-4
sg41
I-4
sg44
I-4
sg45
I-4
sS'['
I-4
sg47
I-4
sg22
I-4
ssI18
(dp88
g59
I20
sS'identifier'
p89
I49
ssI19
(dp90
S';'
I50
ssI20
(dp91
S'identifier'
p92
I51
ssI21
(dp93
S'IMPLEMENTS'
p94
I52
ssI22
(dp95
S']'
I-59
sS','
I-59
ssI23
(dp96
S']'
I-53
sS','
I54
ssI24
(dp97
S']'
I-60
sS','
I-60
ssI25
(dp98
S']'
I-57
sS','
I-57
ssI26
(dp99
S']'
I-56
sS','
I-56
ssI27
(dp100
S']'
I-58
sS','
I-58
ssI28
(dp101
S']'
I-55
sS','
I-55
ssI29
(dp102
S']'
I-61
sS','
I-61
ssI30
(dp103
S'('
I55
sS'='
I56
sS']'
I-250
sS','
I-250
ssI31
(dp104
g22
I-1
ssI32
(dp105
S';'
I57
ssI33
(dp106
S'{'
I-86
sS':'
I58
ssI34
(dp107
S';'
I60
ssI35
(dp108
S'{'
I61
ssI36
(dp109
S'{'
I-86
sS':'
I58
ssI37
(dp110
S'BYTESTRING'
p111
I80
sS'SHORT'
p112
I63
sS'DOMSTRING'
p113
I70
sS'SEQUENCE'
p114
I76
sS'('
I72
sS'OBJECT'
p115
I64
sS'OCTET'
p116
I77
sS'UNSIGNED'
p117
I66
sS'LONG'
p118
I73
sS'FLOAT'
p119
I87
sS'FROZENARRAY'
p120
I74
sS'BOOLEAN'
p121
I90
sS'PROMISE'
p122
I91
sS'UNRESTRICTED'
p123
I92
sS'DOUBLE'
p124
I86
sS'DATE'
p125
I68
sS'REGEXP'
p126
I81
sS'BYTE'
p127
I82
sS'identifier'
p128
I85
sS'ANY'
p129
I89
ssI38
(dp130
S';'
I93
ssI39
(dp131
g64
I30
ssI40
(dp132
g23
I-31
sg37
I-31
sg25
I-31
sg28
I-31
sg3
I-31
sg41
I-31
sg44
I-31
sg45
I-31
sS'['
I-31
sg47
I-31
sg22
I-31
ssI41
(dp133
S'identifier'
p134
I96
sS'error'
p135
I95
ssI42
(dp136
g23
I-28
sg37
I-28
sg25
I-28
sg28
I-28
sg3
I-28
sg41
I-28
sg44
I-28
sg45
I-28
sS'['
I-28
sg47
I-28
sg22
I-28
ssI43
(dp137
g23
I-29
sg37
I-29
sg25
I-29
sg28
I-29
sg3
I-29
sg41
I-29
sg44
I-29
sg45
I-29
sS'['
I-29
sg47
I-29
sg22
I-29
ssI44
(dp138
S'identifier'
p139
I97
ssI45
(dp140
g23
I-32
sg37
I-32
sg25
I-32
sg28
I-32
sg3
I-32
sg41
I-32
sg44
I-32
sg45
I-32
sS'['
I-32
sg47
I-32
sg22
I-32
ssI46
(dp141
g23
I-16
sg37
I-16
sg25
I-16
sg28
I-16
sg3
I-16
sg41
I-16
sg44
I-16
sg45
I-16
sS'['
I-16
sg47
I-16
sg22
I-16
ssI47
(dp142
g23
I-19
sg37
I-19
sg25
I-19
sg28
I-19
sg3
I-19
sg41
I-19
sg44
I-19
sg45
I-19
sS'['
I-19
sg47
I-19
sg22
I-19
ssI48
(dp143
g23
I-20
sg37
I-20
sg25
I-20
sg28
I-20
sg3
I-20
sg41
I-20
sg44
I-20
sg45
I-20
sS'['
I-20
sg47
I-20
sg22
I-20
ssI49
(dp144
S'='
I98
ssI50
(dp145
g23
I-10
sg37
I-10
sg25
I-10
sg28
I-10
sg3
I-10
sg41
I-10
sg44
I-10
sg45
I-10
sS'['
I-10
sg47
I-10
sg22
I-10
ssI51
(dp146
S'{'
I-86
sS':'
I58
ssI52
(dp147
S'identifier'
p148
I100
ssI53
(dp149
S']'
I101
ssI54
(dp150
g64
I30
sS']'
I-52
sS'error'
p151
I103
ssI55
(dp152
g3
I-38
sg4
I-38
sg5
I-38
sg6
I-38
sg7
I-38
sg8
I-38
sg9
I-38
sg10
I-38
sg11
I-38
sg12
I-38
sg13
I-38
sg14
I-38
sg15
I-38
sg16
I-38
sS')'
I-155
sS'('
I-38
sg17
I-38
sg18
I-38
sg19
I-38
sg20
I-38
sg21
I-38
sg23
I-38
sg24
I-38
sg25
I-38
sg26
I-38
sg27
I-38
sg28
I-38
sg29
I-38
sg30
I-38
sg31
I-38
sg32
I-38
sg33
I-38
sS'['
I3
sg34
I-38
sg35
I-38
sg36
I-38
sg37
I-38
sg38
I-38
sg39
I-38
sg40
I-38
sg41
I-38
sg42
I-38
sg43
I-38
sS'error'
p153
I107
sg45
I-38
sg46
I-38
sg47
I-38
sg48
I-38
sg49
I-38
sg50
I-38
ssI56
(dp154
S'('
I109
sS'identifier'
p155
I111
sS'string'
p156
I108
ssI57
(dp157
g23
I-62
sg37
I-62
sg25
I-62
sg28
I-62
sg3
I-62
sg41
I-62
sg44
I-62
sg45
I-62
sS'['
I-62
sg47
I-62
sg22
I-62
ssI58
(dp158
S'identifier'
p159
I112
ssI59
(dp160
S'{'
I113
ssI60
(dp161
g23
I-88
sg37
I-88
sg25
I-88
sg28
I-88
sg3
I-88
sg41
I-88
sg44
I-88
sg45
I-88
sS'['
I-88
sg47
I-88
sg22
I-88
ssI61
(dp162
g3
I-38
sg4
I-38
sg5
I-38
sg6
I-38
sg7
I-38
sg8
I-38
sg9
I-38
sg10
I-38
sg11
I-38
sg12
I-38
sg13
I-38
sg14
I-38
sg15
I-38
sg16
I-38
sS'('
I-38
sg17
I-38
sg18
I-38
sg19
I-38
sg20
I-38
sg21
I-38
sg23
I-38
sg24
I-38
sg25
I-38
sg26
I-38
sg27
I-38
sg28
I-38
sg29
I-38
sg30
I-38
sg31
I-38
sg32
I-38
sg33
I-38
sS'['
I3
sg34
I-38
sg35
I-38
sg36
I-38
sg37
I-38
sg38
I-38
sg39
I-38
sg40
I-38
sg41
I-38
sg42
I-38
sg43
I-38
sg44
I-38
sg45
I-38
sg46
I-38
sg47
I-38
sg48
I-38
sg49
I-38
sg50
I-38
ssI62
(dp163
S'{'
I116
ssI63
(dp164
g3
I-231
sg5
I-231
sg11
I-231
sg14
I-231
sg16
I-231
sS')'
I-231
sS'('
I-231
sg17
I-231
sS','
I-231
sS'ELLIPSIS'
p165
I-231
sg21
I-231
sS'>'
I-231
sg23
I-231
sg25
I-231
sg28
I-231
sg30
I-231
sg31
I-231
sg32
I-231
sS'['
I-231
sS'IMPLEMENTS'
p166
I-231
sg37
I-231
sg38
I-231
sg39
I-231
sg41
I-231
sS'?'
I-231
sg46
I-231
sg47
I-231
sS'OR'
p167
I-231
sg50
I-231
ssI64
(dp168
g3
I-222
sg5
I-222
sg11
I-222
sg14
I-222
sg16
I-222
sS')'
I-222
sS'('
I-222
sg17
I-222
sS','
I-222
sg165
I-222
sg21
I-222
sS'>'
I-222
sg23
I-222
sg25
I-222
sg28
I-222
sg30
I-222
sg31
I-222
sg32
I-222
sS'['
I-222
sg166
I-222
sg37
I-222
sg38
I-222
sg39
I-222
sg41
I-222
sS'?'
I-222
sg46
I-222
sg47
I-222
sg167
I-222
sg50
I-222
ssI65
(dp169
g3
I-240
sg5
I-240
sg11
I-240
sg14
I-240
sg16
I-240
sS')'
I-240
sS'('
I-240
sg17
I-240
sS','
I-240
sg165
I-240
sg21
I-240
sS'>'
I-240
sg23
I-240
sg25
I-240
sg28
I-240
sg30
I-240
sg31
I-240
sg32
I-240
sS'['
I118
sg166
I-240
sg37
I-240
sg38
I-240
sg39
I-240
sg41
I-240
sS'?'
I119
sg46
I-240
sg47
I-240
sg167
I-240
sg50
I-240
ssI66
(dp170
g112
I63
sg118
I73
ssI67
(dp171
g3
I-198
sg5
I-198
sg11
I-198
sg14
I-198
sg16
I-198
sS'('
I-198
sg17
I-198
sS','
I-198
sg165
I-198
sg21
I-198
sS'>'
I-198
sg23
I-198
sg25
I-198
sg28
I-198
sg30
I-198
sg31
I-198
sg32
I-198
sg166
I-198
sg37
I-198
sg38
I-198
sg39
I-198
sg41
I-198
sg46
I-198
sg47
I-198
sg50
I-198
ssI68
(dp172
g3
I-223
sg5
I-223
sg11
I-223
sg14
I-223
sg16
I-223
sS')'
I-223
sS'('
I-223
sg17
I-223
sS','
I-223
sg165
I-223
sg21
I-223
sS'>'
I-223
sg23
I-223
sg25
I-223
sg28
I-223
sg30
I-223
sg31
I-223
sg32
I-223
sS'['
I-223
sg166
I-223
sg37
I-223
sg38
I-223
sg39
I-223
sg41
I-223
sS'?'
I-223
sg46
I-223
sg47
I-223
sg167
I-223
sg50
I-223
ssI69
(dp173
S'identifier'
p174
I121
ssI70
(dp175
g3
I-221
sg5
I-221
sg11
I-221
sg14
I-221
sg16
I-221
sS')'
I-221
sS'('
I-221
sg17
I-221
sS','
I-221
sg165
I-221
sg21
I-221
sS'>'
I-221
sg23
I-221
sg25
I-221
sg28
I-221
sg30
I-221
sg31
I-221
sg32
I-221
sS'['
I-221
sg166
I-221
sg37
I-221
sg38
I-221
sg39
I-221
sg41
I-221
sS'?'
I-221
sg46
I-221
sg47
I-221
sg167
I-221
sg50
I-221
ssI71
(dp176
g3
I-226
sg5
I-226
sg11
I-226
sg14
I-226
sg16
I-226
sS')'
I-226
sS'('
I-226
sg17
I-226
sS','
I-226
sg165
I-226
sg21
I-226
sS'>'
I-226
sg23
I-226
sg25
I-226
sg28
I-226
sg30
I-226
sg31
I-226
sg32
I-226
sS'['
I-226
sg166
I-226
sg37
I-226
sg38
I-226
sg39
I-226
sg41
I-226
sS'?'
I-226
sg46
I-226
sg47
I-226
sg167
I-226
sg50
I-226
ssI72
(dp177
g111
I80
sg112
I63
sg113
I70
sg114
I76
sS'('
I72
sg115
I64
sg116
I77
sg117
I66
sg118
I73
sg119
I87
sg120
I74
sg121
I90
sg122
I91
sg123
I92
sg124
I86
sg125
I68
sg126
I81
sg127
I82
sg128
I85
sS'ANY'
p178
I125
ssI73
(dp179
g3
I-234
sg5
I-234
sg11
I-234
sg14
I-234
sg16
I-234
sS')'
I-234
sS'('
I-234
sg17
I-234
sS','
I-234
sS'LONG'
p180
I127
sg165
I-234
sg21
I-234
sS'>'
I-234
sg23
I-234
sg25
I-234
sg28
I-234
sg30
I-234
sg31
I-234
sg32
I-234
sS'['
I-234
sg166
I-234
sg37
I-234
sg38
I-234
sg39
I-234
sg41
I-234
sS'?'
I-234
sg46
I-234
sg47
I-234
sg167
I-234
sg50
I-234
ssI74
(dp181
S'<'
I128
ssI75
(dp182
g3
I-200
sg5
I-200
sg11
I-200
sg14
I-200
sg16
I-200
sS'('
I-200
sg17
I-200
sS','
I-200
sg165
I-200
sg21
I-200
sS'>'
I-200
sg23
I-200
sg25
I-200
sg28
I-200
sg30
I-200
sg31
I-200
sg32
I-200
sg166
I-200
sg37
I-200
sg38
I-200
sg39
I-200
sg41
I-200
sg46
I-200
sg47
I-200
sg50
I-200
ssI76
(dp183
S'<'
I129
ssI77
(dp184
g3
I-219
sg5
I-219
sg11
I-219
sg14
I-219
sg16
I-219
sS')'
I-219
sS'('
I-219
sg17
I-219
sS','
I-219
sg165
I-219
sg21
I-219
sS'>'
I-219
sg23
I-219
sg25
I-219
sg28
I-219
sg30
I-219
sg31
I-219
sg32
I-219
sS'['
I-219
sg166
I-219
sg37
I-219
sg38
I-219
sg39
I-219
sg41
I-219
sS'?'
I-219
sg46
I-219
sg47
I-219
sg167
I-219
sg50
I-219
ssI78
(dp185
g3
I-244
sg5
I-244
sg11
I-244
sg14
I-244
sg16
I-244
sS')'
I-244
sS'('
I-244
sg17
I-244
sS','
I-244
sg165
I-244
sg21
I-244
sS'>'
I-244
sg23
I-244
sg25
I-244
sg28
I-244
sg30
I-244
sg31
I-244
sg32
I-244
sg166
I-244
sg37
I-244
sg38
I-244
sg39
I-244
sg41
I-244
sS'?'
I131
sg46
I-244
sg47
I-244
sg167
I-244
sg50
I-244
ssI79
(dp186
g3
I-230
sg5
I-230
sg11
I-230
sg14
I-230
sg16
I-230
sS')'
I-230
sS'('
I-230
sg17
I-230
sS','
I-230
sg165
I-230
sg21
I-230
sS'>'
I-230
sg23
I-230
sg25
I-230
sg28
I-230
sg30
I-230
sg31
I-230
sg32
I-230
sS'['
I-230
sg166
I-230
sg37
I-230
sg38
I-230
sg39
I-230
sg41
I-230
sS'?'
I-230
sg46
I-230
sg47
I-230
sg167
I-230
sg50
I-230
ssI80
(dp187
g3
I-220
sg5
I-220
sg11
I-220
sg14
I-220
sg16
I-220
sS')'
I-220
sS'('
I-220
sg17
I-220
sS','
I-220
sg165
I-220
sg21
I-220
sS'>'
I-220
sg23
I-220
sg25
I-220
sg28
I-220
sg30
I-220
sg31
I-220
sg32
I-220
sS'['
I-220
sg166
I-220
sg37
I-220
sg38
I-220
sg39
I-220
sg41
I-220
sS'?'
I-220
sg46
I-220
sg47
I-220
sg167
I-220
sg50
I-220
ssI81
(dp188
g3
I-224
sg5
I-224
sg11
I-224
sg14
I-224
sg16
I-224
sS')'
I-224
sS'('
I-224
sg17
I-224
sS','
I-224
sg165
I-224
sg21
I-224
sS'>'
I-224
sg23
I-224
sg25
I-224
sg28
I-224
sg30
I-224
sg31
I-224
sg32
I-224
sS'['
I-224
sg166
I-224
sg37
I-224
sg38
I-224
sg39
I-224
sg41
I-224
sS'?'
I-224
sg46
I-224
sg47
I-224
sg167
I-224
sg50
I-224
ssI82
(dp189
g3
I-218
sg5
I-218
sg11
I-218
sg14
I-218
sg16
I-218
sS')'
I-218
sS'('
I-218
sg17
I-218
sS','
I-218
sg165
I-218
sg21
I-218
sS'>'
I-218
sg23
I-218
sg25
I-218
sg28
I-218
sg30
I-218
sg31
I-218
sg32
I-218
sS'['
I-218
sg166
I-218
sg37
I-218
sg38
I-218
sg39
I-218
sg41
I-218
sS'?'
I-218
sg46
I-218
sg47
I-218
sg167
I-218
sg50
I-218
ssI83
(dp190
g3
I-240
sg5
I-240
sg11
I-240
sg14
I-240
sg16
I-240
sS')'
I-240
sS'('
I-240
sg17
I-240
sS','
I-240
sg165
I-240
sg21
I-240
sS'>'
I-240
sg23
I-240
sg25
I-240
sg28
I-240
sg30
I-240
sg31
I-240
sg32
I-240
sS'['
I118
sg166
I-240
sg37
I-240
sg38
I-240
sg39
I-240
sg41
I-240
sS'?'
I119
sg46
I-240
sg47
I-240
sg167
I-240
sg50
I-240
ssI84
(dp191
g3
I-216
sg5
I-216
sg11
I-216
sg14
I-216
sg16
I-216
sS')'
I-216
sS'('
I-216
sg17
I-216
sS','
I-216
sg165
I-216
sg21
I-216
sS'>'
I-216
sg23
I-216
sg25
I-216
sg28
I-216
sg30
I-216
sg31
I-216
sg32
I-216
sS'['
I-216
sg166
I-216
sg37
I-216
sg38
I-216
sg39
I-216
sg41
I-216
sS'?'
I-216
sg46
I-216
sg47
I-216
sg167
I-216
sg50
I-216
ssI85
(dp192
g3
I-240
sg5
I-240
sg11
I-240
sg14
I-240
sg16
I-240
sS')'
I-240
sS'('
I-240
sg17
I-240
sS','
I-240
sg165
I-240
sg21
I-240
sS'>'
I-240
sg23
I-240
sg25
I-240
sg28
I-240
sg30
I-240
sg31
I-240
sg32
I-240
sS'['
I118
sg166
I-240
sg37
I-240
sg38
I-240
sg39
I-240
sg41
I-240
sS'?'
I119
sg46
I-240
sg47
I-240
sg167
I-240
sg50
I-240
ssI86
(dp193
g3
I-228
sg5
I-228
sg11
I-228
sg14
I-228
sg16
I-228
sS')'
I-228
sS'('
I-228
sg17
I-228
sS','
I-228
sg165
I-228
sg21
I-228
sS'>'
I-228
sg23
I-228
sg25
I-228
sg28
I-228
sg30
I-228
sg31
I-228
sg32
I-228
sS'['
I-228
sg166
I-228
sg37
I-228
sg38
I-228
sg39
I-228
sg41
I-228
sS'?'
I-228
sg46
I-228
sg47
I-228
sg167
I-228
sg50
I-228
ssI87
(dp194
g3
I-227
sg5
I-227
sg11
I-227
sg14
I-227
sg16
I-227
sS')'
I-227
sS'('
I-227
sg17
I-227
sS','
I-227
sg165
I-227
sg21
I-227
sS'>'
I-227
sg23
I-227
sg25
I-227
sg28
I-227
sg30
I-227
sg31
I-227
sg32
I-227
sS'['
I-227
sg166
I-227
sg37
I-227
sg38
I-227
sg39
I-227
sg41
I-227
sS'?'
I-227
sg46
I-227
sg47
I-227
sg167
I-227
sg50
I-227
ssI88
(dp195
g3
I-215
sg5
I-215
sg11
I-215
sg14
I-215
sg16
I-215
sS')'
I-215
sS'('
I-215
sg17
I-215
sS','
I-215
sg165
I-215
sg21
I-215
sS'>'
I-215
sg23
I-215
sg25
I-215
sg28
I-215
sg30
I-215
sg31
I-215
sg32
I-215
sS'['
I-215
sg166
I-215
sg37
I-215
sg38
I-215
sg39
I-215
sg41
I-215
sS'?'
I-215
sg46
I-215
sg47
I-215
sg167
I-215
sg50
I-215
ssI89
(dp196
g3
I-242
sg5
I-242
sg11
I-242
sg14
I-242
sg16
I-242
sS')'
I-242
sS'('
I-242
sg17
I-242
sS','
I-242
sg165
I-242
sg21
I-242
sS'>'
I-242
sg23
I-242
sg25
I-242
sg28
I-242
sg30
I-242
sg31
I-242
sg32
I-242
sS'['
I134
sg166
I-242
sg37
I-242
sg38
I-242
sg39
I-242
sg41
I-242
sg46
I-242
sg47
I-242
sg167
I-242
sg50
I-242
ssI90
(dp197
g3
I-217
sg5
I-217
sg11
I-217
sg14
I-217
sg16
I-217
sS')'
I-217
sS'('
I-217
sg17
I-217
sS','
I-217
sg165
I-217
sg21
I-217
sS'>'
I-217
sg23
I-217
sg25
I-217
sg28
I-217
sg30
I-217
sg31
I-217
sg32
I-217
sS'['
I-217
sg166
I-217
sg37
I-217
sg38
I-217
sg39
I-217
sg41
I-217
sS'?'
I-217
sg46
I-217
sg47
I-217
sg167
I-217
sg50
I-217
ssI91
(dp198
g3
I-236
sg5
I-236
sg11
I-236
sg14
I-236
sg16
I-236
sS')'
I-236
sS'('
I-236
sg17
I-236
sS','
I-236
sg165
I-236
sS'<'
I136
sg21
I-236
sS'>'
I-236
sg23
I-236
sg25
I-236
sg28
I-236
sg30
I-236
sg31
I-236
sg32
I-236
sg166
I-236
sg37
I-236
sg38
I-236
sg39
I-236
sg41
I-236
sS'?'
I-236
sg46
I-236
sg47
I-236
sg167
I-236
sg50
I-236
ssI92
(dp199
g124
I86
sg119
I87
ssI93
(dp200
g23
I-96
sg37
I-96
sg25
I-96
sg28
I-96
sg3
I-96
sg41
I-96
sg44
I-96
sg45
I-96
sS'['
I-96
sg47
I-96
sg22
I-96
ssI94
(dp201
S']'
I-53
sS','
I139
ssI95
(dp202
S';'
I140
ssI96
(dp203
S'{'
I141
ssI97
(dp204
S'{'
I142
ssI98
(dp205
g111
I80
sg112
I63
sg113
I70
sg114
I76
sS'('
I72
sS'VOID'
p206
I143
sg115
I64
sg116
I77
sg117
I66
sg118
I73
sg119
I87
sg120
I74
sg121
I90
sg122
I91
sg123
I92
sg124
I86
sg125
I68
sg126
I81
sg127
I82
sg128
I85
sg129
I89
ssI99
(dp207
S'{'
I146
ssI100
(dp208
S';'
I147
ssI101
(dp209
g3
I-37
sg4
I-37
sg5
I-37
sg6
I-37
sg7
I-37
sg8
I-37
sg9
I-37
sg10
I-37
sg11
I-37
sg12
I-37
sg14
I-37
sg15
I-37
sg16
I-37
sS'('
I-37
sg17
I-37
sg18
I-37
sg19
I-37
sg20
I-37
sg21
I-37
sg23
I-37
sg24
I-37
sg25
I-37
sg26
I-37
sg27
I-37
sg28
I-37
sg29
I-37
sg30
I-37
sg31
I-37
sg32
I-37
sg33
I-37
sg13
I-37
sg34
I-37
sg35
I-37
sg36
I-37
sg37
I-37
sg38
I-37
sg39
I-37
sg40
I-37
sg41
I-37
sg42
I-37
sg43
I-37
sg44
I-37
sg45
I-37
sg46
I-37
sg47
I-37
sg48
I-37
sg49
I-37
sg50
I-37
ssI102
(dp210
S']'
I-53
sS','
I139
ssI103
(dp211
g3
I-50
sg4
I-50
sg5
I-50
sg6
I-50
sg7
I-50
sg8
I-50
sg9
I-50
sg10
I-50
sg11
I-50
sg12
I-50
sg14
I-50
sg15
I-50
sg16
I-50
sS'('
I-50
sg17
I-50
sg18
I-50
sg19
I-50
sg20
I-50
sg21
I-50
sg23
I-50
sg24
I-50
sg25
I-50
sg26
I-50
sg27
I-50
sg28
I-50
sg29
I-50
sg30
I-50
sg31
I-50
sg32
I-50
sg33
I-50
sg13
I-50
sg34
I-50
sg35
I-50
sg36
I-50
sg37
I-50
sg38
I-50
sg39
I-50
sg40
I-50
sg41
I-50
sg42
I-50
sg43
I-50
sg44
I-50
sg45
I-50
sg46
I-50
sg47
I-50
sg48
I-50
sg49
I-50
sg50
I-50
ssI104
(dp212
S')'
I149
ssI105
(dp213
S')'
I-158
sS','
I150
ssI106
(dp214
g111
I80
sg112
I63
sg113
I70
sg114
I76
sS'('
I72
sg115
I64
sg116
I77
sg117
I66
sg118
I73
sg119
I87
sg120
I74
sg121
I90
sg122
I91
sg123
I92
sg124
I86
sg125
I68
sg126
I81
sg127
I82
sg128
I85
sS'OPTIONAL'
p215
I153
sg129
I89
ssI107
(dp216
S')'
I-156
ssI108
(dp217
S')'
I-21
sS';'
I-21
sS']'
I-21
sS','
I-21
ssI109
(dp218
S'identifier'
p219
I158
sg156
I108
ssI110
(dp220
S']'
I-64
sS','
I-64
ssI111
(dp221
S'('
I159
sS']'
I-252
sS','
I-252
ssI112
(dp222
S'{'
I-85
ssI113
(dp223
g3
I-38
sg4
I-38
sg5
I-38
sg6
I-38
sg7
I-38
sg8
I-38
sg9
I-38
sg10
I-38
sg11
I-38
sg12
I-38
sg13
I-38
sg14
I-38
sg15
I-38
sg16
I-38
sS'('
I-38
sg17
I-38
sg18
I-38
sg19
I-38
sg20
I-38
sg21
I-38
sg23
I-38
sg24
I-38
sg25
I-38
sg26
I-38
sg27
I-38
sg28
I-38
sg29
I-38
sg30
I-38
sg31
I-38
sg32
I-38
sg48
I-38
sg33
I-38
sS'['
I3
sg34
I-38
sg35
I-38
sg36
I-38
sg37
I-38
sg38
I-38
sg39
I-38
sg40
I-38
sg41
I-38
sg42
I-38
sg43
I-38
sS'error'
p224
I162
sg45
I-38
sg46
I-38
sg47
I-38
sS'}'
I-66
sg49
I-38
sg50
I-38
ssI114
(dp225
S'}'
I163
ssI115
(dp226
S'string'
p227
I164
ssI116
(dp228
g3
I-38
sg4
I-38
sg5
I-38
sg6
I-38
sg7
I-38
sg8
I-38
sg9
I-38
sg10
I-38
sg11
I-38
sg12
I-38
sg13
I-38
sg14
I-38
sg15
I-38
sg16
I-38
sS'('
I-38
sg17
I-38
sg18
I-38
sg19
I-38
sg20
I-38
sg21
I-38
sg23
I-38
sg24
I-38
sg25
I-38
sg26
I-38
sg27
I-38
sg28
I-38
sg29
I-38
sg30
I-38
sg31
I-38
sg32
I-38
sg48
I-38
sg33
I-38
sS'['
I3
sg34
I-38
sg35
I-38
sg36
I-38
sg37
I-38
sg38
I-38
sg39
I-38
sg40
I-38
sg41
I-38
sg42
I-38
sg43
I-38
sS'error'
p229
I167
sg45
I-38
sg46
I-38
sg47
I-38
sS'}'
I-83
sg49
I-38
sg50
I-38
ssI117
(dp230
g3
I-208
sg5
I-208
sg11
I-208
sg14
I-208
sg16
I-208
sS')'
I-208
sS'('
I-208
sg17
I-208
sS','
I-208
sg165
I-208
sg21
I-208
sS'>'
I-208
sg23
I-208
sg25
I-208
sg28
I-208
sg30
I-208
sg31
I-208
sg32
I-208
sg166
I-208
sg37
I-208
sg38
I-208
sg39
I-208
sg41
I-208
sg46
I-208
sg47
I-208
sg167
I-208
sg50
I-208
ssI118
(dp231
S'integer'
p232
I168
sS']'
I169
ssI119
(dp233
g3
I-242
sg5
I-242
sg11
I-242
sg14
I-242
sg16
I-242
sS')'
I-242
sS'('
I-242
sg17
I-242
sS','
I-242
sg165
I-242
sg21
I-242
sS'>'
I-242
sg23
I-242
sg25
I-242
sg28
I-242
sg30
I-242
sg31
I-242
sg32
I-242
sS'['
I134
sg166
I-242
sg37
I-242
sg38
I-242
sg39
I-242
sg41
I-242
sg46
I-242
sg47
I-242
sg167
I-242
sg50
I-242
ssI120
(dp234
g3
I-229
sg5
I-229
sg11
I-229
sg14
I-229
sg16
I-229
sS')'
I-229
sS'('
I-229
sg17
I-229
sS','
I-229
sg165
I-229
sg21
I-229
sS'>'
I-229
sg23
I-229
sg25
I-229
sg28
I-229
sg30
I-229
sg31
I-229
sg32
I-229
sS'['
I-229
sg166
I-229
sg37
I-229
sg38
I-229
sg39
I-229
sg41
I-229
sS'?'
I-229
sg46
I-229
sg47
I-229
sg167
I-229
sg50
I-229
ssI121
(dp235
S';'
I171
ssI122
(dp236
g3
I-240
sg5
I-240
sg11
I-240
sg14
I-240
sg16
I-240
sS')'
I-240
sS'('
I-240
sg17
I-240
sS','
I-240
sg165
I-240
sg21
I-240
sS'>'
I-240
sg23
I-240
sg25
I-240
sg28
I-240
sg30
I-240
sg31
I-240
sg32
I-240
sS'['
I118
sg166
I-240
sg37
I-240
sg38
I-240
sg39
I-240
sg41
I-240
sS'?'
I119
sg46
I-240
sg47
I-240
sg167
I-240
sg50
I-240
ssI123
(dp237
S'OR'
p238
I173
ssI124
(dp239
S')'
I-203
sg167
I-203
ssI125
(dp240
S'['
I174
ssI126
(dp241
g3
I-232
sg5
I-232
sg11
I-232
sg14
I-232
sg16
I-232
sS')'
I-232
sS'('
I-232
sg17
I-232
sS','
I-232
sg165
I-232
sg21
I-232
sS'>'
I-232
sg23
I-232
sg25
I-232
sg28
I-232
sg30
I-232
sg31
I-232
sg32
I-232
sS'['
I-232
sg166
I-232
sg37
I-232
sg38
I-232
sg39
I-232
sg41
I-232
sS'?'
I-232
sg46
I-232
sg47
I-232
sg167
I-232
sg50
I-232
ssI127
(dp242
g3
I-233
sg5
I-233
sg11
I-233
sg14
I-233
sg16
I-233
sS')'
I-233
sS'('
I-233
sg17
I-233
sS','
I-233
sg165
I-233
sg21
I-233
sS'>'
I-233
sg23
I-233
sg25
I-233
sg28
I-233
sg30
I-233
sg31
I-233
sg32
I-233
sS'['
I-233
sg166
I-233
sg37
I-233
sg38
I-233
sg39
I-233
sg41
I-233
sS'?'
I-233
sg46
I-233
sg47
I-233
sg167
I-233
sg50
I-233
ssI128
(dp243
g111
I80
sg112
I63
sg113
I70
sg114
I76
sS'('
I72
sg115
I64
sg116
I77
sg117
I66
sg118
I73
sg119
I87
sg120
I74
sg121
I90
sg122
I91
sg123
I92
sg124
I86
sg125
I68
sg126
I81
sg127
I82
sg128
I85
sg129
I89
ssI129
(dp244
g111
I80
sg112
I63
sg113
I70
sg114
I76
sS'('
I72
sg115
I64
sg116
I77
sg117
I66
sg118
I73
sg119
I87
sg120
I74
sg121
I90
sg122
I91
sg123
I92
sg124
I86
sg125
I68
sg126
I81
sg127
I82
sg128
I85
sg129
I89
ssI130
(dp245
g3
I-209
sg5
I-209
sg11
I-209
sg14
I-209
sg16
I-209
sS')'
I-209
sS'('
I-209
sg17
I-209
sS','
I-209
sg165
I-209
sg21
I-209
sS'>'
I-209
sg23
I-209
sg25
I-209
sg28
I-209
sg30
I-209
sg31
I-209
sg32
I-209
sg166
I-209
sg37
I-209
sg38
I-209
sg39
I-209
sg41
I-209
sg46
I-209
sg47
I-209
sg167
I-209
sg50
I-209
ssI131
(dp246
g3
I-243
sg5
I-243
sg11
I-243
sg14
I-243
sg16
I-243
sS')'
I-243
sS'('
I-243
sg17
I-243
sS','
I-243
sg165
I-243
sg21
I-243
sS'>'
I-243
sg23
I-243
sg25
I-243
sg28
I-243
sg30
I-243
sg31
I-243
sg32
I-243
sg166
I-243
sg37
I-243
sg38
I-243
sg39
I-243
sg41
I-243
sg46
I-243
sg47
I-243
sg167
I-243
sg50
I-243
ssI132
(dp247
g3
I-199
sg5
I-199
sg11
I-199
sg14
I-199
sg16
I-199
sS'('
I-199
sg17
I-199
sS','
I-199
sg165
I-199
sg21
I-199
sS'>'
I-199
sg23
I-199
sg25
I-199
sg28
I-199
sg30
I-199
sg31
I-199
sg32
I-199
sg166
I-199
sg37
I-199
sg38
I-199
sg39
I-199
sg41
I-199
sg46
I-199
sg47
I-199
sg50
I-199
ssI133
(dp248
g3
I-210
sg5
I-210
sg11
I-210
sg14
I-210
sg16
I-210
sS')'
I-210
sS'('
I-210
sg17
I-210
sS','
I-210
sg165
I-210
sg21
I-210
sS'>'
I-210
sg23
I-210
sg25
I-210
sg28
I-210
sg30
I-210
sg31
I-210
sg32
I-210
sg166
I-210
sg37
I-210
sg38
I-210
sg39
I-210
sg41
I-210
sg46
I-210
sg47
I-210
sg167
I-210
sg50
I-210
ssI134
(dp249
S']'
I177
ssI135
(dp250
g3
I-201
sg5
I-201
sg11
I-201
sg14
I-201
sg16
I-201
sS'('
I-201
sg17
I-201
sS','
I-201
sg165
I-201
sg21
I-201
sS'>'
I-201
sg23
I-201
sg25
I-201
sg28
I-201
sg30
I-201
sg31
I-201
sg32
I-201
sg166
I-201
sg37
I-201
sg38
I-201
sg39
I-201
sg41
I-201
sg46
I-201
sg47
I-201
sg50
I-201
ssI136
(dp251
g111
I80
sg112
I63
sg113
I70
sg114
I76
sS'('
I72
sg206
I143
sg115
I64
sg116
I77
sg117
I66
sg118
I73
sg119
I87
sg120
I74
sg121
I90
sg122
I91
sg123
I92
sg124
I86
sg125
I68
sg126
I81
sg127
I82
sg128
I85
sg129
I89
ssI137
(dp252
g3
I-225
sg5
I-225
sg11
I-225
sg14
I-225
sg16
I-225
sS')'
I-225
sS'('
I-225
sg17
I-225
sS','
I-225
sg165
I-225
sg21
I-225
sS'>'
I-225
sg23
I-225
sg25
I-225
sg28
I-225
sg30
I-225
sg31
I-225
sg32
I-225
sS'['
I-225
sg166
I-225
sg37
I-225
sg38
I-225
sg39
I-225
sg41
I-225
sS'?'
I-225
sg46
I-225
sg47
I-225
sg167
I-225
sg50
I-225
ssI138
(dp253
S']'
I179
ssI139
(dp254
g64
I30
sS']'
I-52
ssI140
(dp255
g23
I-75
sg37
I-75
sg25
I-75
sg28
I-75
sg3
I-75
sg41
I-75
sg44
I-75
sg45
I-75
sS'['
I-75
sg47
I-75
sg22
I-75
ssI141
(dp256
g3
I-38
sg4
I-38
sg5
I-38
sg6
I-38
sg7
I-38
sg8
I-38
sg9
I-38
sg10
I-38
sg11
I-38
sg12
I-38
sg13
I-38
sg14
I-38
sg15
I-38
sg16
I-38
sS'('
I-38
sg17
I-38
sg18
I-38
sg19
I-38
sg20
I-38
sg21
I-38
sg23
I-38
sg24
I-38
sg25
I-38
sg26
I-38
sg27
I-38
sg28
I-38
sg29
I-38
sg30
I-38
sg31
I-38
sg32
I-38
sg48
I-38
sg33
I-38
sS'['
I3
sg34
I-38
sg35
I-38
sg36
I-38
sg37
I-38
sg38
I-38
sg39
I-38
sg40
I-38
sg41
I-38
sg42
I-38
sg43
I-38
sg44
I-38
sg45
I-38
sg46
I-38
sg47
I-38
sS'}'
I-66
sg49
I-38
sg50
I-38
ssI142
(dp257
g3
I-38
sg4
I-38
sg5
I-38
sg6
I-38
sg7
I-38
sg8
I-38
sg9
I-38
sg10
I-38
sg11
I-38
sg12
I-38
sg13
I-38
sg14
I-38
sg15
I-38
sg16
I-38
sS'('
I-38
sg17
I-38
sg18
I-38
sg19
I-38
sg20
I-38
sg21
I-38
sg23
I-38
sg24
I-38
sg25
I-38
sg26
I-38
sg27
I-38
sg28
I-38
sg29
I-38
sg30
I-38
sg31
I-38
sg32
I-38
sg48
I-38
sg33
I-38
sS'['
I3
sg34
I-38
sg35
I-38
sg36
I-38
sg37
I-38
sg38
I-38
sg39
I-38
sg40
I-38
sg41
I-38
sg42
I-38
sg43
I-38
sS'error'
p258
I183
sg45
I-38
sg46
I-38
sg47
I-38
sS'}'
I-36
sg49
I-38
sg50
I-38
ssI143
(dp259
S'('
I-246
sg47
I-246
sS'>'
I-246
ssI144
(dp260
S'('
I-245
sg47
I-245
sS'>'
I-245
ssI145
(dp261
S'('
I184
ssI146
(dp262
g3
I-38
sg4
I-38
sg5
I-38
sg6
I-38
sg7
I-38
sg8
I-38
sg9
I-38
sg10
I-38
sg11
I-38
sg12
I-38
sg13
I-38
sg14
I-38
sg15
I-38
sg16
I-38
sS'('
I-38
sg17
I-38
sg18
I-38
sg19
I-38
sg20
I-38
sg21
I-38
sg23
I-38
sg24
I-38
sg25
I-38
sg26
I-38
sg27
I-38
sg28
I-38
sg29
I-38
sg30
I-38
sg31
I-38
sg32
I-38
sg48
I-38
sg33
I-38
sS'['
I3
sg34
I-38
sg35
I-38
sg36
I-38
sg37
I-38
sg38
I-38
sg39
I-38
sg40
I-38
sg41
I-38
sg42
I-38
sg43
I-38
sS'error'
p263
I186
sg45
I-38
sg46
I-38
sg47
I-38
sS'}'
I-36
sg49
I-38
sg50
I-38
ssI147
(dp264
g23
I-97
sg37
I-97
sg25
I-97
sg28
I-97
sg3
I-97
sg41
I-97
sg44
I-97
sg45
I-97
sS'['
I-97
sg47
I-97
sg22
I-97
ssI148
(dp265
S']'
I-51
ssI149
(dp266
S']'
I-251
sS','
I-251
ssI150
(dp267
g3
I-38
sg4
I-38
sg5
I-38
sg6
I-38
sg7
I-38
sg8
I-38
sg9
I-38
sg10
I-38
sg11
I-38
sg12
I-38
sg13
I-38
sg14
I-38
sg15
I-38
sg16
I-38
sS'('
I-38
sg17
I-38
sg18
I-38
sg19
I-38
sg20
I-38
sg21
I-38
sg23
I-38
sg24
I-38
sg25
I-38
sg26
I-38
sg27
I-38
sg28
I-38
sg29
I-38
sg30
I-38
sg31
I-38
sg32
I-38
sg33
I-38
sS'['
I3
sg34
I-38
sg35
I-38
sg36
I-38
sg37
I-38
sg38
I-38
sg39
I-38
sg40
I-38
sg41
I-38
sg42
I-38
sg43
I-38
sS'error'
p268
I188
sg45
I-38
sg46
I-38
sg47
I-38
sg48
I-38
sg49
I-38
sg50
I-38
ssI151
(dp269
S')'
I-154
ssI152
(dp270
g166
I-166
sg37
I-166
sg3
I-166
sg5
I-166
sg38
I-166
sg25
I-166
sg16
I-166
sg39
I-166
sg28
I-166
sg23
I-166
sg30
I-166
sg31
I-166
sg41
I-166
sg32
I-166
sg11
I-166
sg21
I-166
sS'ELLIPSIS'
p271
I190
sg46
I-166
sg47
I-166
sg50
I-166
sg14
I-166
ssI153
(dp272
g111
I80
sg112
I63
sg113
I70
sg114
I76
sS'('
I72
sg115
I64
sg116
I77
sg117
I66
sg118
I73
sg119
I87
sg120
I74
sg121
I90
sg122
I91
sg123
I92
sg124
I86
sg125
I68
sg126
I81
sg127
I82
sg128
I85
sg129
I89
ssI154
(dp273
S')'
I-160
sS','
I-160
ssI155
(dp274
S')'
I-71
sS','
I192
ssI156
(dp275
S')'
I193
ssI157
(dp276
S')'
I194
ssI158
(dp277
S')'
I-249
sS']'
I-249
sS'}'
I-249
sS','
I195
ssI159
(dp278
g3
I-38
sg4
I-38
sg5
I-38
sg6
I-38
sg7
I-38
sg8
I-38
sg9
I-38
sg10
I-38
sg11
I-38
sg12
I-38
sg13
I-38
sg14
I-38
sg15
I-38
sg16
I-38
sS')'
I-155
sS'('
I-38
sg17
I-38
sg18
I-38
sg19
I-38
sg20
I-38
sg21
I-38
sg23
I-38
sg24
I-38
sg25
I-38
sg26
I-38
sg27
I-38
sg28
I-38
sg29
I-38
sg30
I-38
sg31
I-38
sg32
I-38
sg33
I-38
sS'['
I3
sg34
I-38
sg35
I-38
sg36
I-38
sg37
I-38
sg38
I-38
sg39
I-38
sg40
I-38
sg41
I-38
sg42
I-38
sg43
I-38
sg153
I107
sg45
I-38
sg46
I-38
sg47
I-38
sg48
I-38
sg49
I-38
sg50
I-38
ssI160
(dp279
S'}'
I198
ssI161
(dp280
g4
I-73
sg9
I-73
sg12
I-73
sg15
I-73
sS'('
I-73
sS'REQUIRED'
p281
I199
sg10
I-73
sg19
I-73
sg18
I-73
sg26
I-73
sg29
I-73
sg33
I-73
sg13
I-73
sg47
I-73
sg48
I-73
sg40
I-73
sg42
I-73
sg43
I-73
sS'error'
p282
I202
sg46
I-73
sg36
I-73
sg49
I-73
ssI162
(dp283
g23
I-63
sg37
I-63
sg25
I-63
sg28
I-63
sg3
I-63
sg41
I-63
sg44
I-63
sg45
I-63
sS'['
I-63
sg47
I-63
sg22
I-63
ssI163
(dp284
S';'
I203
ssI164
(dp285
S'}'
I-91
sS','
I204
ssI165
(dp286
S'}'
I206
ssI166
(dp287
g112
I63
sS'CONST'
p288
I211
sg115
I64
sS'READONLY'
p289
I213
sg125
I68
sg113
I70
sS'('
I72
sg117
I66
sg118
I73
sg120
I74
sg114
I76
sg116
I77
sg126
I81
sg127
I82
sg128
I85
sg39
I-140
sg119
I87
sg121
I90
sg122
I91
sS'error'
p290
I216
sg123
I92
sg111
I80
sg124
I86
sg129
I89
ssI167
(dp291
S'}'
I-84
ssI168
(dp292
S']'
I217
ssI169
(dp293
g3
I-240
sg5
I-240
sg11
I-240
sg14
I-240
sg16
I-240
sS')'
I-240
sS'('
I-240
sg17
I-240
sS','
I-240
sg165
I-240
sg21
I-240
sS'>'
I-240
sg23
I-240
sg25
I-240
sg28
I-240
sg30
I-240
sg31
I-240
sg32
I-240
sS'['
I118
sg166
I-240
sg37
I-240
sg38
I-240
sg39
I-240
sg41
I-240
sS'?'
I119
sg46
I-240
sg47
I-240
sg167
I-240
sg50
I-240
ssI170
(dp294
g3
I-239
sg5
I-239
sg11
I-239
sg14
I-239
sg16
I-239
sS')'
I-239
sS'('
I-239
sg17
I-239
sS','
I-239
sg165
I-239
sg21
I-239
sS'>'
I-239
sg23
I-239
sg25
I-239
sg28
I-239
sg30
I-239
sg31
I-239
sg32
I-239
sg166
I-239
sg37
I-239
sg38
I-239
sg39
I-239
sg41
I-239
sg46
I-239
sg47
I-239
sg167
I-239
sg50
I-239
ssI171
(dp295
g23
I-95
sg37
I-95
sg25
I-95
sg28
I-95
sg3
I-95
sg41
I-95
sg44
I-95
sg45
I-95
sS'['
I-95
sg47
I-95
sg22
I-95
ssI172
(dp296
S')'
I-204
sg167
I-204
ssI173
(dp297
g111
I80
sg112
I63
sg113
I70
sg114
I76
sS'('
I72
sg115
I64
sg116
I77
sg117
I66
sg118
I73
sg119
I87
sg120
I74
sg121
I90
sg122
I91
sg123
I92
sg124
I86
sg125
I68
sg126
I81
sg127
I82
sg128
I85
sg178
I125
ssI174
(dp298
S']'
I220
ssI175
(dp299
S'>'
I221
ssI176
(dp300
S'>'
I222
ssI177
(dp301
g3
I-240
sg5
I-240
sg11
I-240
sg14
I-240
sg16
I-240
sS')'
I-240
sS'('
I-240
sg17
I-240
sS','
I-240
sg165
I-240
sg21
I-240
sS'>'
I-240
sg23
I-240
sg25
I-240
sg28
I-240
sg30
I-240
sg31
I-240
sg32
I-240
sS'['
I118
sg166
I-240
sg37
I-240
sg38
I-240
sg39
I-240
sg41
I-240
sS'?'
I119
sg46
I-240
sg47
I-240
sg167
I-240
sg50
I-240
ssI178
(dp302
S'>'
I224
ssI179
(dp303
g36
I-177
sg4
I-177
sg15
I-177
sg26
I-177
sS'('
I-177
sg9
I-177
sg29
I-177
sg10
I-177
sg19
I-177
sg40
I-177
sg18
I-177
sg42
I-177
sg43
I-177
sg46
I-177
sg48
I-177
sg12
I-177
sg33
I-177
sg13
I-177
sg47
I-177
sg49
I-177
ssI180
(dp304
S'}'
I225
ssI181
(dp305
S'}'
I226
ssI182
(dp306
g112
I63
sg288
I211
sS'SETLIKE'
p307
I235
sS'MAPLIKE'
p308
I252
sg206
I143
sg115
I64
sg117
I66
sS'STATIC'
p309
I236
sg125
I68
sS'SETTER'
p310
I237
sg113
I70
sS'CREATOR'
p311
I229
sS'('
I72
sS'READONLY'
p312
I239
sg118
I73
sg120
I74
sS'SERIALIZER'
p313
I254
sg114
I76
sS'LEGACYITERABLE'
p314
I256
sg116
I77
sS'INHERIT'
p315
I249
sS'LEGACYCALLER'
p316
I233
sS'GETTER'
p317
I240
sg126
I81
sg127
I82
sS'ITERABLE'
p318
I231
sg111
I80
sS'STRINGIFIER'
p319
I244
sS'ATTRIBUTE'
p320
I245
sg119
I87
sg121
I90
sg122
I91
sg124
I86
sg123
I92
sg128
I85
sg129
I89
sS'DELETER'
p321
I258
ssI183
(dp322
S'}'
I-39
ssI184
(dp323
g3
I-38
sg4
I-38
sg5
I-38
sg6
I-38
sg7
I-38
sg8
I-38
sg9
I-38
sg10
I-38
sg11
I-38
sg12
I-38
sg13
I-38
sg14
I-38
sg15
I-38
sg16
I-38
sS')'
I-155
sS'('
I-38
sg17
I-38
sg18
I-38
sg19
I-38
sg20
I-38
sg21
I-38
sg23
I-38
sg24
I-38
sg25
I-38
sg26
I-38
sg27
I-38
sg28
I-38
sg29
I-38
sg30
I-38
sg31
I-38
sg32
I-38
sg33
I-38
sS'['
I3
sg34
I-38
sg35
I-38
sg36
I-38
sg37
I-38
sg38
I-38
sg39
I-38
sg40
I-38
sg41
I-38
sg42
I-38
sg43
I-38
sg153
I107
sg45
I-38
sg46
I-38
sg47
I-38
sg48
I-38
sg49
I-38
sg50
I-38
ssI185
(dp324
S'}'
I260
ssI186
(dp325
g23
I-23
sg37
I-23
sg25
I-23
sg28
I-23
sg3
I-23
sg41
I-23
sg44
I-23
sg45
I-23
sS'['
I-23
sg47
I-23
sS'}'
I-39
sg22
I-23
ssI187
(dp326
S')'
I-158
sS','
I150
ssI188
(dp327
S')'
I-159
ssI189
(dp328
S'IMPLEMENTS'
p329
I275
sS'EXCEPTION'
p330
I262
sS'CONST'
p331
I263
sS'STRINGIFIER'
p332
I277
sS'DICTIONARY'
p333
I270
sS'CREATOR'
p334
I266
sS'ATTRIBUTE'
p335
I278
sS'ENUM'
p336
I271
sS'TYPEDEF'
p337
I269
sS'INHERIT'
p338
I272
sS'LEGACYCALLER'
p339
I273
sS'CALLBACK'
p340
I280
sS'GETTER'
p341
I274
sS'STATIC'
p342
I264
sS'SERIALIZER'
p343
I268
sS'PARTIAL'
p344
I276
sS'UNRESTRICTED'
p345
I281
sS'identifier'
p346
I282
sS'DELETER'
p347
I283
sS'SETTER'
p348
I265
ssI190
(dp349
g166
I-165
sg3
I-165
sg5
I-165
sg38
I-165
sg25
I-165
sg16
I-165
sg39
I-165
sg28
I-165
sg23
I-165
sg30
I-165
sg31
I-165
sg41
I-165
sg32
I-165
sg11
I-165
sg21
I-165
sg37
I-165
sg46
I-165
sg47
I-165
sg50
I-165
sg14
I-165
ssI191
(dp350
g329
I275
sg330
I262
sg331
I263
sg332
I277
sg333
I270
sg334
I266
sg335
I278
sg336
I271
sg337
I269
sg338
I272
sg339
I273
sg340
I280
sg341
I274
sg342
I264
sg343
I268
sg344
I276
sg345
I281
sg346
I282
sg347
I283
sg348
I265
ssI192
(dp351
g156
I108
ssI193
(dp352
S']'
I-253
sS','
I-253
ssI194
(dp353
S']'
I-67
sS','
I-67
ssI195
(dp354
S'identifier'
p355
I286
ssI196
(dp356
S')'
I-247
ssI197
(dp357
S')'
I287
ssI198
(dp358
S';'
I288
ssI199
(dp359
g36
I-72
sg4
I-72
sg15
I-72
sg26
I-72
sS'('
I-72
sg9
I-72
sg29
I-72
sg10
I-72
sg19
I-72
sg40
I-72
sg18
I-72
sg42
I-72
sg43
I-72
sg46
I-72
sg48
I-72
sg12
I-72
sg33
I-72
sg13
I-72
sg47
I-72
sg49
I-72
ssI200
(dp360
g111
I80
sg112
I63
sg113
I70
sg114
I76
sS'('
I72
sg115
I64
sg116
I77
sg117
I66
sg118
I73
sg119
I87
sg120
I74
sg121
I90
sg122
I91
sg123
I92
sg124
I86
sg125
I68
sg126
I81
sg127
I82
sg128
I85
sg129
I89
ssI201
(dp361
g3
I-38
sg4
I-38
sg5
I-38
sg6
I-38
sg7
I-38
sg8
I-38
sg9
I-38
sg10
I-38
sg11
I-38
sg12
I-38
sg13
I-38
sg14
I-38
sg15
I-38
sg16
I-38
sS'('
I-38
sg17
I-38
sg18
I-38
sg19
I-38
sg20
I-38
sg21
I-38
sg23
I-38
sg24
I-38
sg25
I-38
sg26
I-38
sg27
I-38
sg28
I-38
sg29
I-38
sg30
I-38
sg31
I-38
sg32
I-38
sg48
I-38
sg33
I-38
sS'['
I3
sg34
I-38
sg35
I-38
sg36
I-38
sg37
I-38
sg38
I-38
sg39
I-38
sg40
I-38
sg41
I-38
sg42
I-38
sg43
I-38
sg44
I-38
sg45
I-38
sg46
I-38
sg47
I-38
sS'}'
I-66
sg49
I-38
sg50
I-38
ssI202
(dp362
S'}'
I-68
ssI203
(dp363
g23
I-87
sg37
I-87
sg25
I-87
sg28
I-87
sg3
I-87
sg41
I-87
sg44
I-87
sg45
I-87
sS'['
I-87
sg47
I-87
sg22
I-87
ssI204
(dp364
g3
I-38
sg4
I-38
sg5
I-38
sg6
I-38
sg7
I-38
sg8
I-38
sg9
I-38
sg10
I-38
sg11
I-38
sg12
I-38
sg13
I-38
sg14
I-38
sg15
I-38
sg16
I-38
sS'('
I-38
sg17
I-38
sg18
I-38
sg19
I-38
sg20
I-38
sg21
I-38
sg23
I-38
sg24
I-38
sg25
I-38
sg26
I-38
sg27
I-38
sg28
I-38
sg29
I-38
sg30
I-38
sg31
I-38
sg32
I-38
sg48
I-38
sg33
I-38
sS'['
I3
sg34
I-38
sg35
I-38
sg36
I-38
sg37
I-38
sg38
I-38
sg39
I-38
sg40
I-38
sg41
I-38
sg42
I-38
sg43
I-38
sg44
I-38
sg45
I-38
sg46
I-38
sg47
I-38
sS'}'
I-93
sg49
I-38
sg50
I-38
ssI205
(dp365
S'}'
I-89
ssI206
(dp366
S';'
I293
ssI207
(dp367
g4
I-24
sg5
I-24
sg9
I-24
sg20
I-24
sg12
I-24
sg13
I-24
sg15
I-24
sS'('
I-24
sg10
I-24
sg19
I-24
sg18
I-24
sg26
I-24
sg29
I-24
sg33
I-24
sS'['
I-24
sg47
I-24
sg39
I-24
sg40
I-24
sS'}'
I-24
sg42
I-24
sg43
I-24
sg44
I-24
sg46
I-24
sg36
I-24
sg48
I-24
sg49
I-24
ssI208
(dp368
g4
I-26
sg5
I-26
sg9
I-26
sg20
I-26
sg12
I-26
sg13
I-26
sg15
I-26
sS'('
I-26
sg10
I-26
sg19
I-26
sg18
I-26
sg26
I-26
sg29
I-26
sg33
I-26
sS'['
I-26
sg47
I-26
sg39
I-26
sg40
I-26
sS'}'
I-26
sg42
I-26
sg43
I-26
sg44
I-26
sg46
I-26
sg36
I-26
sg48
I-26
sg49
I-26
ssI209
(dp369
g4
I-27
sg5
I-27
sg9
I-27
sg20
I-27
sg12
I-27
sg13
I-27
sg15
I-27
sS'('
I-27
sg10
I-27
sg19
I-27
sg18
I-27
sg26
I-27
sg29
I-27
sg33
I-27
sS'['
I-27
sg47
I-27
sg39
I-27
sg40
I-27
sS'}'
I-27
sg42
I-27
sg43
I-27
sg44
I-27
sg46
I-27
sg36
I-27
sg48
I-27
sg49
I-27
ssI210
(dp370
g4
I-25
sg5
I-25
sg9
I-25
sg20
I-25
sg12
I-25
sg13
I-25
sg15
I-25
sS'('
I-25
sg10
I-25
sg19
I-25
sg18
I-25
sg26
I-25
sg29
I-25
sg33
I-25
sS'['
I-25
sg47
I-25
sg39
I-25
sg40
I-25
sS'}'
I-25
sg42
I-25
sg43
I-25
sg44
I-25
sg46
I-25
sg36
I-25
sg48
I-25
sg49
I-25
ssI211
(dp371
g111
I80
sg112
I63
sg113
I70
sg124
I86
sg115
I64
sg116
I77
sg117
I66
sg118
I73
sg119
I87
sg121
I90
sg125
I68
sg126
I81
sg127
I82
sS'identifier'
p372
I295
sg123
I92
ssI212
(dp373
S'identifier'
p374
I297
ssI213
(dp375
g39
I-139
ssI214
(dp376
g3
I-38
sg4
I-38
sg5
I-38
sg6
I-38
sg7
I-38
sg8
I-38
sg9
I-38
sg10
I-38
sg11
I-38
sg12
I-38
sg13
I-38
sg14
I-38
sg15
I-38
sg16
I-38
sS'('
I-38
sg17
I-38
sg18
I-38
sg19
I-38
sg20
I-38
sg21
I-38
sg23
I-38
sg24
I-38
sg25
I-38
sg26
I-38
sg27
I-38
sg28
I-38
sg29
I-38
sg30
I-38
sg31
I-38
sg32
I-38
sg48
I-38
sg33
I-38
sS'['
I3
sg34
I-38
sg35
I-38
sg36
I-38
sg37
I-38
sg38
I-38
sg39
I-38
sg40
I-38
sg41
I-38
sg42
I-38
sg43
I-38
sg229
I167
sg45
I-38
sg46
I-38
sg47
I-38
sS'}'
I-83
sg49
I-38
sg50
I-38
ssI215
(dp377
S'ATTRIBUTE'
p378
I299
ssI216
(dp379
g4
I-168
sg5
I-168
sg9
I-168
sg20
I-168
sg12
I-168
sg13
I-168
sg15
I-168
sS'('
I-168
sg10
I-168
sg19
I-168
sg18
I-168
sg26
I-168
sg29
I-168
sg33
I-168
sS'['
I-168
sg47
I-168
sg39
I-168
sg40
I-168
sS'}'
I-168
sg42
I-168
sg43
I-168
sg44
I-168
sg46
I-168
sg36
I-168
sg48
I-168
sg49
I-168
ssI217
(dp380
g3
I-240
sg5
I-240
sg11
I-240
sg14
I-240
sg16
I-240
sS')'
I-240
sS'('
I-240
sg17
I-240
sS','
I-240
sg165
I-240
sg21
I-240
sS'>'
I-240
sg23
I-240
sg25
I-240
sg28
I-240
sg30
I-240
sg31
I-240
sg32
I-240
sS'['
I118
sg166
I-240
sg37
I-240
sg38
I-240
sg39
I-240
sg41
I-240
sS'?'
I119
sg46
I-240
sg47
I-240
sg167
I-240
sg50
I-240
ssI218
(dp381
g3
I-238
sg5
I-238
sg11
I-238
sg14
I-238
sg16
I-238
sS')'
I-238
sS'('
I-238
sg17
I-238
sS','
I-238
sg165
I-238
sg21
I-238
sS'>'
I-238
sg23
I-238
sg25
I-238
sg28
I-238
sg30
I-238
sg31
I-238
sg32
I-238
sg166
I-238
sg37
I-238
sg38
I-238
sg39
I-238
sg41
I-238
sg46
I-238
sg47
I-238
sg167
I-238
sg50
I-238
ssI219
(dp382
S')'
I-207
sS'OR'
p383
I301
ssI220
(dp384
g3
I-240
sg5
I-240
sg11
I-240
sg14
I-240
sg16
I-240
sS')'
I-240
sS'('
I-240
sg17
I-240
sS','
I-240
sg165
I-240
sg21
I-240
sS'>'
I-240
sg23
I-240
sg25
I-240
sg28
I-240
sg30
I-240
sg31
I-240
sg32
I-240
sS'['
I118
sg166
I-240
sg37
I-240
sg38
I-240
sg39
I-240
sg41
I-240
sS'?'
I119
sg46
I-240
sg47
I-240
sg167
I-240
sg50
I-240
ssI221
(dp385
g3
I-244
sg5
I-244
sg11
I-244
sg14
I-244
sg16
I-244
sS')'
I-244
sS'('
I-244
sg17
I-244
sS','
I-244
sg165
I-244
sg21
I-244
sS'>'
I-244
sg23
I-244
sg25
I-244
sg28
I-244
sg30
I-244
sg31
I-244
sg32
I-244
sg166
I-244
sg37
I-244
sg38
I-244
sg39
I-244
sg41
I-244
sS'?'
I131
sg46
I-244
sg47
I-244
sg167
I-244
sg50
I-244
ssI222
(dp386
g3
I-244
sg5
I-244
sg11
I-244
sg14
I-244
sg16
I-244
sS')'
I-244
sS'('
I-244
sg17
I-244
sS','
I-244
sg165
I-244
sg21
I-244
sS'>'
I-244
sg23
I-244
sg25
I-244
sg28
I-244
sg30
I-244
sg31
I-244
sg32
I-244
sg166
I-244
sg37
I-244
sg38
I-244
sg39
I-244
sg41
I-244
sS'?'
I131
sg46
I-244
sg47
I-244
sg167
I-244
sg50
I-244
ssI223
(dp387
g3
I-241
sg5
I-241
sg11
I-241
sg14
I-241
sg16
I-241
sS')'
I-241
sS'('
I-241
sg17
I-241
sS','
I-241
sg165
I-241
sg21
I-241
sS'>'
I-241
sg23
I-241
sg25
I-241
sg28
I-241
sg30
I-241
sg31
I-241
sg32
I-241
sg166
I-241
sg37
I-241
sg38
I-241
sg39
I-241
sg41
I-241
sg46
I-241
sg47
I-241
sg167
I-241
sg50
I-241
ssI224
(dp388
g3
I-235
sg5
I-235
sg11
I-235
sg14
I-235
sg16
I-235
sS')'
I-235
sS'('
I-235
sg17
I-235
sS','
I-235
sg165
I-235
sg21
I-235
sS'>'
I-235
sg23
I-235
sg25
I-235
sg28
I-235
sg30
I-235
sg31
I-235
sg32
I-235
sg166
I-235
sg37
I-235
sg38
I-235
sg39
I-235
sg41
I-235
sS'?'
I-235
sg46
I-235
sg47
I-235
sg167
I-235
sg50
I-235
ssI225
(dp389
S';'
I306
ssI226
(dp390
S';'
I307
ssI227
(dp391
g4
I-40
sg5
I-40
sg6
I-40
sg7
I-40
sg8
I-40
sg9
I-40
sg10
I-40
sg11
I-40
sg12
I-40
sg13
I-40
sg14
I-40
sg15
I-40
sg16
I-40
sS'('
I-40
sg18
I-40
sg19
I-40
sg20
I-40
sg21
I-40
sg26
I-40
sg27
I-40
sg29
I-40
sg30
I-40
sg31
I-40
sg32
I-40
sg33
I-40
sS'['
I-40
sg35
I-40
sg36
I-40
sg38
I-40
sg39
I-40
sg40
I-40
sS'}'
I-40
sg42
I-40
sg43
I-40
sg44
I-40
sg46
I-40
sg47
I-40
sg48
I-40
sg49
I-40
sg50
I-40
ssI228
(dp392
g4
I-173
sg5
I-173
sg6
I-173
sg7
I-173
sg8
I-173
sg9
I-173
sg10
I-173
sg11
I-173
sg12
I-173
sg13
I-173
sg14
I-173
sg15
I-173
sg16
I-173
sS'('
I-173
sg18
I-173
sg19
I-173
sg20
I-173
sg21
I-173
sg26
I-173
sg27
I-173
sg29
I-173
sg30
I-173
sg31
I-173
sg32
I-173
sg33
I-173
sS'['
I-173
sg35
I-173
sg36
I-173
sg38
I-173
sg39
I-173
sg40
I-173
sS'}'
I-173
sg42
I-173
sg43
I-173
sg44
I-173
sg46
I-173
sg47
I-173
sg48
I-173
sg49
I-173
sg50
I-173
ssI229
(dp393
g4
I-148
sg8
I-148
sg9
I-148
sg12
I-148
sg14
I-148
sg15
I-148
sg16
I-148
sS'('
I-148
sg10
I-148
sg19
I-148
sg18
I-148
sg26
I-148
sg29
I-148
sg31
I-148
sg32
I-148
sg33
I-148
sg13
I-148
sg47
I-148
sg48
I-148
sg40
I-148
sg42
I-148
sg43
I-148
sg46
I-148
sg36
I-148
sg49
I-148
sg50
I-148
ssI230
(dp394
g4
I-44
sg5
I-44
sg6
I-44
sg7
I-44
sg8
I-44
sg9
I-44
sg10
I-44
sg11
I-44
sg12
I-44
sg13
I-44
sg14
I-44
sg15
I-44
sg16
I-44
sS'('
I-44
sg18
I-44
sg19
I-44
sg20
I-44
sg21
I-44
sg26
I-44
sg27
I-44
sg29
I-44
sg30
I-44
sg31
I-44
sg32
I-44
sg33
I-44
sS'['
I-44
sg35
I-44
sg36
I-44
sg38
I-44
sg39
I-44
sg40
I-44
sS'}'
I-44
sg42
I-44
sg43
I-44
sg44
I-44
sg46
I-44
sg47
I-44
sg48
I-44
sg49
I-44
sg50
I-44
ssI231
(dp395
S'<'
I308
ssI232
(dp396
g4
I-48
sg5
I-48
sg6
I-48
sg7
I-48
sg8
I-48
sg9
I-48
sg10
I-48
sg11
I-48
sg12
I-48
sg13
I-48
sg14
I-48
sg15
I-48
sg16
I-48
sS'('
I-48
sg18
I-48
sg19
I-48
sg20
I-48
sg21
I-48
sg26
I-48
sg27
I-48
sg29
I-48
sg30
I-48
sg31
I-48
sg32
I-48
sg33
I-48
sS'['
I-48
sg35
I-48
sg36
I-48
sg38
I-48
sg39
I-48
sg40
I-48
sS'}'
I-48
sg42
I-48
sg43
I-48
sg44
I-48
sg46
I-48
sg47
I-48
sg48
I-48
sg49
I-48
sg50
I-48
ssI233
(dp397
g4
I-150
sg8
I-150
sg9
I-150
sg12
I-150
sg14
I-150
sg15
I-150
sg16
I-150
sS'('
I-150
sg10
I-150
sg19
I-150
sg18
I-150
sg26
I-150
sg29
I-150
sg31
I-150
sg32
I-150
sg33
I-150
sg13
I-150
sg47
I-150
sg48
I-150
sg40
I-150
sg42
I-150
sg43
I-150
sg46
I-150
sg36
I-150
sg49
I-150
sg50
I-150
ssI234
(dp398
g4
I-45
sg5
I-45
sg6
I-45
sg7
I-45
sg8
I-45
sg9
I-45
sg10
I-45
sg11
I-45
sg12
I-45
sg13
I-45
sg14
I-45
sg15
I-45
sg16
I-45
sS'('
I-45
sg18
I-45
sg19
I-45
sg20
I-45
sg21
I-45
sg26
I-45
sg27
I-45
sg29
I-45
sg30
I-45
sg31
I-45
sg32
I-45
sg33
I-45
sS'['
I-45
sg35
I-45
sg36
I-45
sg38
I-45
sg39
I-45
sg40
I-45
sS'}'
I-45
sg42
I-45
sg43
I-45
sg44
I-45
sg46
I-45
sg47
I-45
sg48
I-45
sg49
I-45
sg50
I-45
ssI235
(dp399
S'<'
I309
ssI236
(dp400
g112
I63
sg206
I143
sg115
I64
sg289
I213
sg125
I68
sg113
I70
sS'('
I72
sg117
I66
sg118
I73
sg120
I74
sg114
I76
sg116
I77
sg126
I81
sg127
I82
sg128
I85
sg39
I-140
sg119
I87
sg121
I90
sg122
I91
sg124
I86
sg123
I92
sg111
I80
sg129
I89
ssI237
(dp401
g4
I-147
sg8
I-147
sg9
I-147
sg12
I-147
sg14
I-147
sg15
I-147
sg16
I-147
sS'('
I-147
sg10
I-147
sg19
I-147
sg18
I-147
sg26
I-147
sg29
I-147
sg31
I-147
sg32
I-147
sg33
I-147
sg13
I-147
sg47
I-147
sg48
I-147
sg40
I-147
sg42
I-147
sg43
I-147
sg46
I-147
sg36
I-147
sg49
I-147
sg50
I-147
ssI238
(dp402
g4
I-43
sg5
I-43
sg6
I-43
sg7
I-43
sg8
I-43
sg9
I-43
sg10
I-43
sg11
I-43
sg12
I-43
sg13
I-43
sg14
I-43
sg15
I-43
sg16
I-43
sS'('
I-43
sg18
I-43
sg19
I-43
sg20
I-43
sg21
I-43
sg26
I-43
sg27
I-43
sg29
I-43
sg30
I-43
sg31
I-43
sg32
I-43
sg33
I-43
sS'['
I-43
sg35
I-43
sg36
I-43
sg38
I-43
sg39
I-43
sg40
I-43
sS'}'
I-43
sg42
I-43
sg43
I-43
sg44
I-43
sg46
I-43
sg47
I-43
sg48
I-43
sg49
I-43
sg50
I-43
ssI239
(dp403
g308
I252
sg320
I245
sg307
I235
ssI240
(dp404
g4
I-146
sg8
I-146
sg9
I-146
sg12
I-146
sg14
I-146
sg15
I-146
sg16
I-146
sS'('
I-146
sg10
I-146
sg19
I-146
sg18
I-146
sg26
I-146
sg29
I-146
sg31
I-146
sg32
I-146
sg33
I-146
sg13
I-146
sg47
I-146
sg48
I-146
sg40
I-146
sg42
I-146
sg43
I-146
sg46
I-146
sg36
I-146
sg49
I-146
sg50
I-146
ssI241
(dp405
g4
I-49
sg5
I-49
sg6
I-49
sg7
I-49
sg8
I-49
sg9
I-49
sg10
I-49
sg11
I-49
sg12
I-49
sg13
I-49
sg14
I-49
sg15
I-49
sg16
I-49
sS'('
I-49
sg18
I-49
sg19
I-49
sg20
I-49
sg21
I-49
sg26
I-49
sg27
I-49
sg29
I-49
sg30
I-49
sg31
I-49
sg32
I-49
sg33
I-49
sS'['
I-49
sg35
I-49
sg36
I-49
sg38
I-49
sg39
I-49
sg40
I-49
sS'}'
I-49
sg42
I-49
sg43
I-49
sg44
I-49
sg46
I-49
sg47
I-49
sg48
I-49
sg49
I-49
sg50
I-49
ssI242
(dp406
g4
I-41
sg5
I-41
sg6
I-41
sg7
I-41
sg8
I-41
sg9
I-41
sg10
I-41
sg11
I-41
sg12
I-41
sg13
I-41
sg14
I-41
sg15
I-41
sg16
I-41
sS'('
I-41
sg18
I-41
sg19
I-41
sg20
I-41
sg21
I-41
sg26
I-41
sg27
I-41
sg29
I-41
sg30
I-41
sg31
I-41
sg32
I-41
sg33
I-41
sS'['
I-41
sg35
I-41
sg36
I-41
sg38
I-41
sg39
I-41
sg40
I-41
sS'}'
I-41
sg42
I-41
sg43
I-41
sg44
I-41
sg46
I-41
sg47
I-41
sg48
I-41
sg49
I-41
sg50
I-41
ssI243
(dp407
g4
I-47
sg5
I-47
sg6
I-47
sg7
I-47
sg8
I-47
sg9
I-47
sg10
I-47
sg11
I-47
sg12
I-47
sg13
I-47
sg14
I-47
sg15
I-47
sg16
I-47
sS'('
I-47
sg18
I-47
sg19
I-47
sg20
I-47
sg21
I-47
sg26
I-47
sg27
I-47
sg29
I-47
sg30
I-47
sg31
I-47
sg32
I-47
sg33
I-47
sS'['
I-47
sg35
I-47
sg36
I-47
sg38
I-47
sg39
I-47
sg40
I-47
sS'}'
I-47
sg42
I-47
sg43
I-47
sg44
I-47
sg46
I-47
sg47
I-47
sg48
I-47
sg49
I-47
sg50
I-47
ssI244
(dp408
g112
I63
sg206
I143
sg115
I64
sg289
I213
sg125
I68
sg113
I70
sS'('
I72
sg117
I66
sg118
I73
sg120
I74
sS';'
I318
sg114
I76
sg116
I77
sg126
I81
sg127
I82
sg128
I85
sg39
I-140
sg119
I87
sg121
I90
sg122
I91
sg124
I86
sg123
I92
sg111
I80
sg129
I89
ssI245
(dp409
g111
I80
sg112
I63
sg113
I70
sg114
I76
sS'('
I72
sg115
I64
sg116
I77
sg117
I66
sg118
I73
sg119
I87
sg120
I74
sg121
I90
sg122
I91
sg123
I92
sg124
I86
sg125
I68
sg126
I81
sg127
I82
sg128
I85
sg129
I89
ssI246
(dp410
g4
I-174
sg5
I-174
sg6
I-174
sg7
I-174
sg8
I-174
sg9
I-174
sg10
I-174
sg11
I-174
sg12
I-174
sg13
I-174
sg14
I-174
sg15
I-174
sg16
I-174
sS'('
I-174
sg18
I-174
sg19
I-174
sg20
I-174
sg21
I-174
sg26
I-174
sg27
I-174
sg29
I-174
sg30
I-174
sg31
I-174
sg32
I-174
sg33
I-174
sS'['
I-174
sg35
I-174
sg36
I-174
sg38
I-174
sg39
I-174
sg40
I-174
sS'}'
I-174
sg42
I-174
sg43
I-174
sg44
I-174
sg46
I-174
sg47
I-174
sg48
I-174
sg49
I-174
sg50
I-174
ssI247
(dp411
g3
I-38
sg4
I-38
sg5
I-38
sg6
I-38
sg7
I-38
sg8
I-38
sg9
I-38
sg10
I-38
sg11
I-38
sg12
I-38
sg13
I-38
sg14
I-38
sg15
I-38
sg16
I-38
sS'('
I-38
sg17
I-38
sg18
I-38
sg19
I-38
sg20
I-38
sg21
I-38
sg23
I-38
sg24
I-38
sg25
I-38
sg26
I-38
sg27
I-38
sg28
I-38
sg29
I-38
sg30
I-38
sg31
I-38
sg32
I-38
sg48
I-38
sg33
I-38
sS'['
I3
sg34
I-38
sg35
I-38
sg36
I-38
sg37
I-38
sg38
I-38
sg39
I-38
sg40
I-38
sg41
I-38
sg42
I-38
sg43
I-38
sg258
I183
sg45
I-38
sg46
I-38
sg47
I-38
sS'}'
I-36
sg49
I-38
sg50
I-38
ssI248
(dp412
g4
I-134
sg5
I-134
sg6
I-134
sg7
I-134
sg8
I-134
sg9
I-134
sg10
I-134
sg11
I-134
sg12
I-134
sg13
I-134
sg14
I-134
sg15
I-134
sg16
I-134
sS'('
I-134
sg18
I-134
sg19
I-134
sg20
I-134
sg21
I-134
sg26
I-134
sg27
I-134
sg29
I-134
sg30
I-134
sg31
I-134
sg32
I-134
sg33
I-134
sS'['
I-134
sg35
I-134
sg36
I-134
sg38
I-134
sg39
I-134
sg40
I-134
sS'}'
I-134
sg42
I-134
sg43
I-134
sg44
I-134
sg46
I-134
sg47
I-134
sg48
I-134
sg49
I-134
sg50
I-134
ssI249
(dp413
g39
I-140
sg289
I213
ssI250
(dp414
g4
I-42
sg5
I-42
sg6
I-42
sg7
I-42
sg8
I-42
sg9
I-42
sg10
I-42
sg11
I-42
sg12
I-42
sg13
I-42
sg14
I-42
sg15
I-42
sg16
I-42
sS'('
I-42
sg18
I-42
sg19
I-42
sg20
I-42
sg21
I-42
sg26
I-42
sg27
I-42
sg29
I-42
sg30
I-42
sg31
I-42
sg32
I-42
sg33
I-42
sS'['
I-42
sg35
I-42
sg36
I-42
sg38
I-42
sg39
I-42
sg40
I-42
sS'}'
I-42
sg42
I-42
sg43
I-42
sg44
I-42
sg46
I-42
sg47
I-42
sg48
I-42
sg49
I-42
sg50
I-42
ssI251
(dp415
g4
I-145
sg8
I-145
sg9
I-145
sg12
I-145
sg310
I237
sg15
I-145
sg311
I229
sS'('
I-145
sg10
I-145
sg19
I-145
sg18
I-145
sg26
I-145
sg29
I-145
sg316
I233
sg317
I240
sg33
I-145
sg13
I-145
sg47
I-145
sg48
I-145
sg40
I-145
sg42
I-145
sg43
I-145
sg46
I-145
sg36
I-145
sg49
I-145
sg321
I258
ssI252
(dp416
S'<'
I326
ssI253
(dp417
g4
I-46
sg5
I-46
sg6
I-46
sg7
I-46
sg8
I-46
sg9
I-46
sg10
I-46
sg11
I-46
sg12
I-46
sg13
I-46
sg14
I-46
sg15
I-46
sg16
I-46
sS'('
I-46
sg18
I-46
sg19
I-46
sg20
I-46
sg21
I-46
sg26
I-46
sg27
I-46
sg29
I-46
sg30
I-46
sg31
I-46
sg32
I-46
sg33
I-46
sS'['
I-46
sg35
I-46
sg36
I-46
sg38
I-46
sg39
I-46
sg40
I-46
sS'}'
I-46
sg42
I-46
sg43
I-46
sg44
I-46
sg46
I-46
sg47
I-46
sg48
I-46
sg49
I-46
sg50
I-46
ssI254
(dp418
g112
I63
sg206
I143
sg115
I64
sg125
I68
sg113
I70
sS'('
I72
sg117
I66
sg118
I73
sg120
I74
sS';'
I328
sS'='
I329
sg114
I76
sg116
I77
sg126
I81
sg127
I82
sg128
I85
sg124
I86
sg119
I87
sg121
I90
sg122
I91
sg123
I92
sg111
I80
sg129
I89
ssI255
(dp419
g4
I-142
sg5
I-142
sg6
I-142
sg7
I-142
sg8
I-142
sg9
I-142
sg10
I-142
sg11
I-142
sg12
I-142
sg13
I-142
sg14
I-142
sg15
I-142
sg16
I-142
sS'('
I-142
sg18
I-142
sg19
I-142
sg20
I-142
sg21
I-142
sg26
I-142
sg27
I-142
sg29
I-142
sg30
I-142
sg31
I-142
sg32
I-142
sg33
I-142
sS'['
I-142
sg35
I-142
sg36
I-142
sg38
I-142
sg39
I-142
sg40
I-142
sS'}'
I-142
sg42
I-142
sg43
I-142
sg44
I-142
sg46
I-142
sg47
I-142
sg48
I-142
sg49
I-142
sg50
I-142
ssI256
(dp420
S'<'
I331
ssI257
(dp421
S'('
I-153
sS'identifier'
p422
I334
ssI258
(dp423
g4
I-149
sg8
I-149
sg9
I-149
sg12
I-149
sg14
I-149
sg15
I-149
sg16
I-149
sS'('
I-149
sg10
I-149
sg19
I-149
sg18
I-149
sg26
I-149
sg29
I-149
sg31
I-149
sg32
I-149
sg33
I-149
sg13
I-149
sg47
I-149
sg48
I-149
sg40
I-149
sg42
I-149
sg43
I-149
sg46
I-149
sg36
I-149
sg49
I-149
sg50
I-149
ssI259
(dp424
S')'
I335
ssI260
(dp425
S';'
I336
ssI261
(dp426
S')'
I-157
ssI262
(dp427
S')'
I-186
sS'='
I-186
sS','
I-186
ssI263
(dp428
S')'
I-181
sS'='
I-181
sS','
I-181
ssI264
(dp429
S')'
I-194
sS'='
I-194
sS','
I-194
ssI265
(dp430
S')'
I-193
sS'='
I-193
sS','
I-193
ssI266
(dp431
S')'
I-182
sS'='
I-182
sS','
I-182
ssI267
(dp432
S')'
I-162
sS','
I-162
ssI268
(dp433
S')'
I-192
sS'='
I-192
sS','
I-192
ssI269
(dp434
S')'
I-196
sS'='
I-196
sS','
I-196
ssI270
(dp435
S')'
I-184
sS'='
I-184
sS','
I-184
ssI271
(dp436
S')'
I-185
sS'='
I-185
sS','
I-185
ssI272
(dp437
S')'
I-189
sS'='
I-189
sS','
I-189
ssI273
(dp438
S')'
I-190
sS'='
I-190
sS','
I-190
ssI274
(dp439
S')'
I-187
sS'='
I-187
sS','
I-187
ssI275
(dp440
S')'
I-188
sS'='
I-188
sS','
I-188
ssI276
(dp441
S')'
I-191
sS'='
I-191
sS','
I-191
ssI277
(dp442
S')'
I-195
sS'='
I-195
sS','
I-195
ssI278
(dp443
S')'
I-179
sS'='
I-179
sS','
I-179
ssI279
(dp444
S')'
I-163
sS'='
I-163
sS','
I-163
ssI280
(dp445
S')'
I-180
sS'='
I-180
sS','
I-180
ssI281
(dp446
S')'
I-197
sS'='
I-197
sS','
I-197
ssI282
(dp447
S')'
I-164
sS'='
I-164
sS','
I-164
ssI283
(dp448
S')'
I-183
sS'='
I-183
sS','
I-183
ssI284
(dp449
S')'
I-77
sS';'
I-77
sS'='
I337
sS','
I-77
ssI285
(dp450
S')'
I-70
ssI286
(dp451
S')'
I-249
sS']'
I-249
sS'}'
I-249
sS','
I195
ssI287
(dp452
S']'
I-254
sS','
I-254
ssI288
(dp453
g23
I-54
sg37
I-54
sg25
I-54
sg28
I-54
sg3
I-54
sg41
I-54
sg44
I-54
sg45
I-54
sS'['
I-54
sg47
I-54
sg22
I-54
ssI289
(dp454
S'identifier'
p455
I340
ssI290
(dp456
S'}'
I-65
ssI291
(dp457
S'string'
p458
I341
ssI292
(dp459
S'}'
I-90
ssI293
(dp460
g23
I-81
sg37
I-81
sg25
I-81
sg28
I-81
sg3
I-81
sg41
I-81
sg44
I-81
sg45
I-81
sS'['
I-81
sg47
I-81
sg22
I-81
ssI294
(dp461
g3
I-244
sg5
I-244
sg11
I-244
sg14
I-244
sg16
I-244
sS')'
I-244
sS'('
I-244
sg17
I-244
sS','
I-244
sg165
I-244
sg21
I-244
sS'>'
I-244
sg23
I-244
sg25
I-244
sg28
I-244
sg30
I-244
sg31
I-244
sg32
I-244
sg166
I-244
sg37
I-244
sg38
I-244
sg39
I-244
sg41
I-244
sS'?'
I131
sg46
I-244
sg47
I-244
sg167
I-244
sg50
I-244
ssI295
(dp462
g3
I-244
sg5
I-244
sg11
I-244
sg14
I-244
sg16
I-244
sS')'
I-244
sS'('
I-244
sg17
I-244
sS','
I-244
sg165
I-244
sg21
I-244
sS'>'
I-244
sg23
I-244
sg25
I-244
sg28
I-244
sg30
I-244
sg31
I-244
sg32
I-244
sg166
I-244
sg37
I-244
sg38
I-244
sg39
I-244
sg41
I-244
sS'?'
I131
sg46
I-244
sg47
I-244
sg167
I-244
sg50
I-244
ssI296
(dp463
S'identifier'
p464
I344
ssI297
(dp465
S'('
I345
sS';'
I346
ssI298
(dp466
S'}'
I-82
ssI299
(dp467
g111
I80
sg112
I63
sg113
I70
sg114
I76
sS'('
I72
sg115
I64
sg116
I77
sg117
I66
sg118
I73
sg119
I87
sg120
I74
sg121
I90
sg122
I91
sg123
I92
sg124
I86
sg125
I68
sg126
I81
sg127
I82
sg128
I85
sg129
I89
ssI300
(dp468
g3
I-237
sg5
I-237
sg11
I-237
sg14
I-237
sg16
I-237
sS')'
I-237
sS'('
I-237
sg17
I-237
sS','
I-237
sg165
I-237
sg21
I-237
sS'>'
I-237
sg23
I-237
sg25
I-237
sg28
I-237
sg30
I-237
sg31
I-237
sg32
I-237
sg166
I-237
sg37
I-237
sg38
I-237
sg39
I-237
sg41
I-237
sg46
I-237
sg47
I-237
sg167
I-237
sg50
I-237
ssI301
(dp469
g111
I80
sg112
I63
sg113
I70
sg114
I76
sS'('
I72
sg115
I64
sg116
I77
sg117
I66
sg118
I73
sg119
I87
sg120
I74
sg121
I90
sg122
I91
sg123
I92
sg124
I86
sg125
I68
sg126
I81
sg127
I82
sg128
I85
sg178
I125
ssI302
(dp470
S')'
I349
ssI303
(dp471
S')'
I-205
sg167
I-205
ssI304
(dp472
g3
I-212
sg5
I-212
sg11
I-212
sg14
I-212
sg16
I-212
sS')'
I-212
sS'('
I-212
sg17
I-212
sS','
I-212
sg165
I-212
sg21
I-212
sS'>'
I-212
sg23
I-212
sg25
I-212
sg28
I-212
sg30
I-212
sg31
I-212
sg32
I-212
sg166
I-212
sg37
I-212
sg38
I-212
sg39
I-212
sg41
I-212
sg46
I-212
sg47
I-212
sg167
I-212
sg50
I-212
ssI305
(dp473
g3
I-211
sg5
I-211
sg11
I-211
sg14
I-211
sg16
I-211
sS')'
I-211
sS'('
I-211
sg17
I-211
sS','
I-211
sg165
I-211
sg21
I-211
sS'>'
I-211
sg23
I-211
sg25
I-211
sg28
I-211
sg30
I-211
sg31
I-211
sg32
I-211
sg166
I-211
sg37
I-211
sg38
I-211
sg39
I-211
sg41
I-211
sg46
I-211
sg47
I-211
sg167
I-211
sg50
I-211
ssI306
(dp474
g23
I-74
sg37
I-74
sg25
I-74
sg28
I-74
sg3
I-74
sg41
I-74
sg44
I-74
sg45
I-74
sS'['
I-74
sg47
I-74
sg22
I-74
ssI307
(dp475
g23
I-34
sg37
I-34
sg25
I-34
sg28
I-34
sg3
I-34
sg41
I-34
sg44
I-34
sg45
I-34
sS'['
I-34
sg47
I-34
sg22
I-34
ssI308
(dp476
g111
I80
sg112
I63
sg113
I70
sg114
I76
sS'('
I72
sg115
I64
sg116
I77
sg117
I66
sg118
I73
sg119
I87
sg120
I74
sg121
I90
sg122
I91
sg123
I92
sg124
I86
sg125
I68
sg126
I81
sg127
I82
sg128
I85
sg129
I89
ssI309
(dp477
g111
I80
sg112
I63
sg113
I70
sg114
I76
sS'('
I72
sg115
I64
sg116
I77
sg117
I66
sg118
I73
sg119
I87
sg120
I74
sg121
I90
sg122
I91
sg123
I92
sg124
I86
sg125
I68
sg126
I81
sg127
I82
sg128
I85
sg129
I89
ssI310
(dp478
g4
I-126
sg5
I-126
sg6
I-126
sg7
I-126
sg8
I-126
sg9
I-126
sg10
I-126
sg11
I-126
sg12
I-126
sg13
I-126
sg14
I-126
sg15
I-126
sg16
I-126
sS'('
I-126
sg18
I-126
sg19
I-126
sg20
I-126
sg21
I-126
sg26
I-126
sg27
I-126
sg29
I-126
sg30
I-126
sg31
I-126
sg32
I-126
sg33
I-126
sS'['
I-126
sg35
I-126
sg36
I-126
sg38
I-126
sg39
I-126
sg40
I-126
sS'}'
I-126
sg42
I-126
sg43
I-126
sg44
I-126
sg46
I-126
sg47
I-126
sg48
I-126
sg49
I-126
sg50
I-126
ssI311
(dp479
S'('
I-153
sg422
I334
ssI312
(dp480
g320
I245
ssI313
(dp481
g4
I-130
sg5
I-130
sg6
I-130
sg7
I-130
sg8
I-130
sg9
I-130
sg10
I-130
sg11
I-130
sg12
I-130
sg13
I-130
sg14
I-130
sg15
I-130
sg16
I-130
sS'('
I-130
sg18
I-130
sg19
I-130
sg20
I-130
sg21
I-130
sg26
I-130
sg27
I-130
sg29
I-130
sg30
I-130
sg31
I-130
sg32
I-130
sg33
I-130
sS'['
I-130
sg35
I-130
sg36
I-130
sg38
I-130
sg39
I-130
sg40
I-130
sS'}'
I-130
sg42
I-130
sg43
I-130
sg44
I-130
sg46
I-130
sg47
I-130
sg48
I-130
sg49
I-130
sg50
I-130
ssI314
(dp482
g4
I-132
sg5
I-132
sg6
I-132
sg7
I-132
sg8
I-132
sg9
I-132
sg10
I-132
sg11
I-132
sg12
I-132
sg13
I-132
sg14
I-132
sg15
I-132
sg16
I-132
sS'('
I-132
sg18
I-132
sg19
I-132
sg20
I-132
sg21
I-132
sg26
I-132
sg27
I-132
sg29
I-132
sg30
I-132
sg31
I-132
sg32
I-132
sg33
I-132
sS'['
I-132
sg35
I-132
sg36
I-132
sg38
I-132
sg39
I-132
sg40
I-132
sS'}'
I-132
sg42
I-132
sg43
I-132
sg44
I-132
sg46
I-132
sg47
I-132
sg48
I-132
sg49
I-132
sg50
I-132
ssI315
(dp483
g4
I-131
sg5
I-131
sg6
I-131
sg7
I-131
sg8
I-131
sg9
I-131
sg10
I-131
sg11
I-131
sg12
I-131
sg13
I-131
sg14
I-131
sg15
I-131
sg16
I-131
sS'('
I-131
sg18
I-131
sg19
I-131
sg20
I-131
sg21
I-131
sg26
I-131
sg27
I-131
sg29
I-131
sg30
I-131
sg31
I-131
sg32
I-131
sg33
I-131
sS'['
I-131
sg35
I-131
sg36
I-131
sg38
I-131
sg39
I-131
sg40
I-131
sS'}'
I-131
sg42
I-131
sg43
I-131
sg44
I-131
sg46
I-131
sg47
I-131
sg48
I-131
sg49
I-131
sg50
I-131
ssI316
(dp484
g4
I-129
sg5
I-129
sg6
I-129
sg7
I-129
sg8
I-129
sg9
I-129
sg10
I-129
sg11
I-129
sg12
I-129
sg13
I-129
sg14
I-129
sg15
I-129
sg16
I-129
sS'('
I-129
sg18
I-129
sg19
I-129
sg20
I-129
sg21
I-129
sg26
I-129
sg27
I-129
sg29
I-129
sg30
I-129
sg31
I-129
sg32
I-129
sg33
I-129
sS'['
I-129
sg35
I-129
sg36
I-129
sg38
I-129
sg39
I-129
sg40
I-129
sS'}'
I-129
sg42
I-129
sg43
I-129
sg44
I-129
sg46
I-129
sg47
I-129
sg48
I-129
sg49
I-129
sg50
I-129
ssI317
(dp485
g4
I-122
sg5
I-122
sg6
I-122
sg7
I-122
sg8
I-122
sg9
I-122
sg10
I-122
sg11
I-122
sg12
I-122
sg13
I-122
sg14
I-122
sg15
I-122
sg16
I-122
sS'('
I-122
sg18
I-122
sg19
I-122
sg20
I-122
sg21
I-122
sg26
I-122
sg27
I-122
sg29
I-122
sg30
I-122
sg31
I-122
sg32
I-122
sg33
I-122
sS'['
I-122
sg35
I-122
sg36
I-122
sg38
I-122
sg39
I-122
sg40
I-122
sS'}'
I-122
sg42
I-122
sg43
I-122
sg44
I-122
sg46
I-122
sg47
I-122
sg48
I-122
sg49
I-122
sg50
I-122
ssI318
(dp486
g4
I-125
sg5
I-125
sg6
I-125
sg7
I-125
sg8
I-125
sg9
I-125
sg10
I-125
sg11
I-125
sg12
I-125
sg13
I-125
sg14
I-125
sg15
I-125
sg16
I-125
sS'('
I-125
sg18
I-125
sg19
I-125
sg20
I-125
sg21
I-125
sg26
I-125
sg27
I-125
sg29
I-125
sg30
I-125
sg31
I-125
sg32
I-125
sg33
I-125
sS'['
I-125
sg35
I-125
sg36
I-125
sg38
I-125
sg39
I-125
sg40
I-125
sS'}'
I-125
sg42
I-125
sg43
I-125
sg44
I-125
sg46
I-125
sg47
I-125
sg48
I-125
sg49
I-125
sg50
I-125
ssI319
(dp487
S'('
I-153
sg422
I334
ssI320
(dp488
g320
I245
ssI321
(dp489
S'identifier'
p490
I358
sS'REQUIRED'
p491
I356
ssI322
(dp492
S'}'
I-35
ssI323
(dp493
g320
I245
ssI324
(dp494
g111
I80
sg112
I63
sg113
I70
sg114
I76
sS'('
I72
sg206
I143
sg115
I64
sg116
I77
sg117
I66
sg118
I73
sg119
I87
sg120
I74
sg121
I90
sg122
I91
sg123
I92
sg124
I86
sg125
I68
sg126
I81
sg127
I82
sg128
I85
sg129
I89
ssI325
(dp495
g4
I-145
sg8
I-145
sg9
I-145
sg12
I-145
sg310
I237
sg15
I-145
sg311
I229
sS'('
I-145
sg10
I-145
sg19
I-145
sg18
I-145
sg26
I-145
sg29
I-145
sg316
I233
sg317
I240
sg33
I-145
sg13
I-145
sg47
I-145
sg48
I-145
sg40
I-145
sg42
I-145
sg43
I-145
sg46
I-145
sg36
I-145
sg49
I-145
sg321
I258
ssI326
(dp496
g111
I80
sg112
I63
sg113
I70
sg114
I76
sS'('
I72
sg115
I64
sg116
I77
sg117
I66
sg118
I73
sg119
I87
sg120
I74
sg121
I90
sg122
I91
sg123
I92
sg124
I86
sg125
I68
sg126
I81
sg127
I82
sg128
I85
sg129
I89
ssI327
(dp497
g4
I-106
sg5
I-106
sg6
I-106
sg7
I-106
sg8
I-106
sg9
I-106
sg10
I-106
sg11
I-106
sg12
I-106
sg13
I-106
sg14
I-106
sg15
I-106
sg16
I-106
sS'('
I-106
sg18
I-106
sg19
I-106
sg20
I-106
sg21
I-106
sg26
I-106
sg27
I-106
sg29
I-106
sg30
I-106
sg31
I-106
sg32
I-106
sg33
I-106
sS'['
I-106
sg35
I-106
sg36
I-106
sg38
I-106
sg39
I-106
sg40
I-106
sS'}'
I-106
sg42
I-106
sg43
I-106
sg44
I-106
sg46
I-106
sg47
I-106
sg48
I-106
sg49
I-106
sg50
I-106
ssI328
(dp498
g4
I-109
sg5
I-109
sg6
I-109
sg7
I-109
sg8
I-109
sg9
I-109
sg10
I-109
sg11
I-109
sg12
I-109
sg13
I-109
sg14
I-109
sg15
I-109
sg16
I-109
sS'('
I-109
sg18
I-109
sg19
I-109
sg20
I-109
sg21
I-109
sg26
I-109
sg27
I-109
sg29
I-109
sg30
I-109
sg31
I-109
sg32
I-109
sg33
I-109
sS'['
I-109
sg35
I-109
sg36
I-109
sg38
I-109
sg39
I-109
sg40
I-109
sS'}'
I-109
sg42
I-109
sg43
I-109
sg44
I-109
sg46
I-109
sg47
I-109
sg48
I-109
sg49
I-109
sg50
I-109
ssI329
(dp499
S'{'
I366
sS'identifier'
p500
I365
sS'['
I364
ssI330
(dp501
S'('
I-153
sg422
I334
ssI331
(dp502
g111
I80
sg112
I63
sg113
I70
sg114
I76
sS'('
I72
sg115
I64
sg116
I77
sg117
I66
sg118
I73
sg119
I87
sg120
I74
sg121
I90
sg122
I91
sg123
I92
sg124
I86
sg125
I68
sg126
I81
sg127
I82
sg128
I85
sg129
I89
ssI332
(dp503
g4
I-141
sg5
I-141
sg6
I-141
sg7
I-141
sg8
I-141
sg9
I-141
sg10
I-141
sg11
I-141
sg12
I-141
sg13
I-141
sg14
I-141
sg15
I-141
sg16
I-141
sS'('
I-141
sg18
I-141
sg19
I-141
sg20
I-141
sg21
I-141
sg26
I-141
sg27
I-141
sg29
I-141
sg30
I-141
sg31
I-141
sg32
I-141
sg33
I-141
sS'['
I-141
sg35
I-141
sg36
I-141
sg38
I-141
sg39
I-141
sg40
I-141
sS'}'
I-141
sg42
I-141
sg43
I-141
sg44
I-141
sg46
I-141
sg47
I-141
sg48
I-141
sg49
I-141
sg50
I-141
ssI333
(dp504
S'('
I370
ssI334
(dp505
S'('
I-152
ssI335
(dp506
S';'
I371
ssI336
(dp507
g23
I-22
sg37
I-22
sg25
I-22
sg28
I-22
sg3
I-22
sg41
I-22
sg44
I-22
sg45
I-22
sS'['
I-22
sg47
I-22
sg22
I-22
ssI337
(dp508
S'FALSE'
p509
I373
sS'string'
p510
I374
sS'NAN'
p511
I383
sS'float'
p512
I377
sS'-'
I378
sS'integer'
p513
I382
sS'INFINITY'
p514
I384
sS'['
I385
sS'NULL'
p515
I381
sS'TRUE'
p516
I388
ssI338
(dp517
S')'
I-161
sS','
I-161
ssI339
(dp518
S')'
I-248
sS']'
I-248
sS'}'
I-248
ssI340
(dp519
S')'
I-77
sS';'
I-77
sS'='
I337
sS','
I-77
ssI341
(dp520
S'}'
I-91
sS','
I204
ssI342
(dp521
g47
I-213
ssI343
(dp522
g47
I-214
ssI344
(dp523
S'='
I391
ssI345
(dp524
S')'
I392
ssI346
(dp525
g4
I-167
sg5
I-167
sg9
I-167
sg20
I-167
sg12
I-167
sg13
I-167
sg15
I-167
sS'('
I-167
sg10
I-167
sg19
I-167
sg18
I-167
sg26
I-167
sg29
I-167
sg33
I-167
sS'['
I-167
sg47
I-167
sg39
I-167
sg40
I-167
sS'}'
I-167
sg42
I-167
sg43
I-167
sg44
I-167
sg46
I-167
sg36
I-167
sg48
I-167
sg49
I-167
ssI347
(dp526
S'identifier'
p527
I393
ssI348
(dp528
S')'
I-207
sg383
I301
ssI349
(dp529
g3
I-202
sg5
I-202
sg11
I-202
sg14
I-202
sg16
I-202
sS')'
I-202
sS'('
I-202
sg17
I-202
sS','
I-202
sg165
I-202
sg21
I-202
sS'>'
I-202
sg23
I-202
sg25
I-202
sg28
I-202
sg30
I-202
sg31
I-202
sg32
I-202
sS'['
I-202
sg166
I-202
sg37
I-202
sg38
I-202
sg39
I-202
sg41
I-202
sS'?'
I-202
sg46
I-202
sg47
I-202
sg167
I-202
sg50
I-202
ssI350
(dp530
S','
I395
sS'>'
I-172
ssI351
(dp531
S'>'
I397
ssI352
(dp532
g4
I-128
sg5
I-128
sg6
I-128
sg7
I-128
sg8
I-128
sg9
I-128
sg10
I-128
sg11
I-128
sg12
I-128
sg13
I-128
sg14
I-128
sg15
I-128
sg16
I-128
sS'('
I-128
sg18
I-128
sg19
I-128
sg20
I-128
sg21
I-128
sg26
I-128
sg27
I-128
sg29
I-128
sg30
I-128
sg31
I-128
sg32
I-128
sg33
I-128
sS'['
I-128
sg35
I-128
sg36
I-128
sg38
I-128
sg39
I-128
sg40
I-128
sS'}'
I-128
sg42
I-128
sg43
I-128
sg44
I-128
sg46
I-128
sg47
I-128
sg48
I-128
sg49
I-128
sg50
I-128
ssI353
(dp533
g4
I-127
sg5
I-127
sg6
I-127
sg7
I-127
sg8
I-127
sg9
I-127
sg10
I-127
sg11
I-127
sg12
I-127
sg13
I-127
sg14
I-127
sg15
I-127
sg16
I-127
sS'('
I-127
sg18
I-127
sg19
I-127
sg20
I-127
sg21
I-127
sg26
I-127
sg27
I-127
sg29
I-127
sg30
I-127
sg31
I-127
sg32
I-127
sg33
I-127
sS'['
I-127
sg35
I-127
sg36
I-127
sg38
I-127
sg39
I-127
sg40
I-127
sS'}'
I-127
sg42
I-127
sg43
I-127
sg44
I-127
sg46
I-127
sg47
I-127
sg48
I-127
sg49
I-127
sg50
I-127
ssI354
(dp534
g4
I-124
sg5
I-124
sg6
I-124
sg7
I-124
sg8
I-124
sg9
I-124
sg10
I-124
sg11
I-124
sg12
I-124
sg13
I-124
sg14
I-124
sg15
I-124
sg16
I-124
sS'('
I-124
sg18
I-124
sg19
I-124
sg20
I-124
sg21
I-124
sg26
I-124
sg27
I-124
sg29
I-124
sg30
I-124
sg31
I-124
sg32
I-124
sg33
I-124
sS'['
I-124
sg35
I-124
sg36
I-124
sg38
I-124
sg39
I-124
sg40
I-124
sS'}'
I-124
sg42
I-124
sg43
I-124
sg44
I-124
sg46
I-124
sg47
I-124
sg48
I-124
sg49
I-124
sg50
I-124
ssI355
(dp535
g4
I-123
sg5
I-123
sg6
I-123
sg7
I-123
sg8
I-123
sg9
I-123
sg10
I-123
sg11
I-123
sg12
I-123
sg13
I-123
sg14
I-123
sg15
I-123
sg16
I-123
sS'('
I-123
sg18
I-123
sg19
I-123
sg20
I-123
sg21
I-123
sg26
I-123
sg27
I-123
sg29
I-123
sg30
I-123
sg31
I-123
sg32
I-123
sg33
I-123
sS'['
I-123
sg35
I-123
sg36
I-123
sg38
I-123
sg39
I-123
sg40
I-123
sS'}'
I-123
sg42
I-123
sg43
I-123
sg44
I-123
sg46
I-123
sg47
I-123
sg48
I-123
sg49
I-123
sg50
I-123
ssI356
(dp536
S';'
I-138
ssI357
(dp537
S';'
I398
ssI358
(dp538
S';'
I-137
ssI359
(dp539
S';'
I-136
ssI360
(dp540
g4
I-133
sg5
I-133
sg6
I-133
sg7
I-133
sg8
I-133
sg9
I-133
sg10
I-133
sg11
I-133
sg12
I-133
sg13
I-133
sg14
I-133
sg15
I-133
sg16
I-133
sS'('
I-133
sg18
I-133
sg19
I-133
sg20
I-133
sg21
I-133
sg26
I-133
sg27
I-133
sg29
I-133
sg30
I-133
sg31
I-133
sg32
I-133
sg33
I-133
sS'['
I-133
sg35
I-133
sg36
I-133
sg38
I-133
sg39
I-133
sg40
I-133
sS'}'
I-133
sg42
I-133
sg43
I-133
sg44
I-133
sg46
I-133
sg47
I-133
sg48
I-133
sg49
I-133
sg50
I-133
ssI361
(dp541
S'('
I-153
sg422
I334
ssI362
(dp542
g36
I-144
sg4
I-144
sg15
I-144
sg26
I-144
sS'('
I-144
sg8
I-144
sg9
I-144
sg29
I-144
sg10
I-144
sg19
I-144
sg40
I-144
sg18
I-144
sg42
I-144
sg43
I-144
sg46
I-144
sg48
I-144
sg12
I-144
sg33
I-144
sg13
I-144
sg47
I-144
sg49
I-144
ssI363
(dp543
S','
I400
ssI364
(dp544
S'GETTER'
p545
I402
sS']'
I-121
sS'identifier'
p546
I403
ssI365
(dp547
S';'
I-112
ssI366
(dp548
S'ATTRIBUTE'
p549
I404
sS'identifier'
p550
I408
sS'GETTER'
p551
I407
sS'}'
I-118
sS'INHERIT'
p552
I405
ssI367
(dp553
S';'
I409
ssI368
(dp554
g4
I-107
sg5
I-107
sg6
I-107
sg7
I-107
sg8
I-107
sg9
I-107
sg10
I-107
sg11
I-107
sg12
I-107
sg13
I-107
sg14
I-107
sg15
I-107
sg16
I-107
sS'('
I-107
sg18
I-107
sg19
I-107
sg20
I-107
sg21
I-107
sg26
I-107
sg27
I-107
sg29
I-107
sg30
I-107
sg31
I-107
sg32
I-107
sg33
I-107
sS'['
I-107
sg35
I-107
sg36
I-107
sg38
I-107
sg39
I-107
sg40
I-107
sS'}'
I-107
sg42
I-107
sg43
I-107
sg44
I-107
sg46
I-107
sg47
I-107
sg48
I-107
sg49
I-107
sg50
I-107
ssI369
(dp555
S'>'
I410
ssI370
(dp556
g3
I-38
sg4
I-38
sg5
I-38
sg6
I-38
sg7
I-38
sg8
I-38
sg9
I-38
sg10
I-38
sg11
I-38
sg12
I-38
sg13
I-38
sg14
I-38
sg15
I-38
sg16
I-38
sS')'
I-155
sS'('
I-38
sg17
I-38
sg18
I-38
sg19
I-38
sg20
I-38
sg21
I-38
sg23
I-38
sg24
I-38
sg25
I-38
sg26
I-38
sg27
I-38
sg28
I-38
sg29
I-38
sg30
I-38
sg31
I-38
sg32
I-38
sg33
I-38
sS'['
I3
sg34
I-38
sg35
I-38
sg36
I-38
sg37
I-38
sg38
I-38
sg39
I-38
sg40
I-38
sg41
I-38
sg42
I-38
sg43
I-38
sg153
I107
sg45
I-38
sg46
I-38
sg47
I-38
sg48
I-38
sg49
I-38
sg50
I-38
ssI371
(dp557
g23
I-94
sg37
I-94
sg25
I-94
sg28
I-94
sg3
I-94
sg41
I-94
sg44
I-94
sg45
I-94
sS'['
I-94
sg47
I-94
sg22
I-94
ssI372
(dp558
S')'
I-15
sS';'
I-15
sS','
I-15
ssI373
(dp559
S')'
I-101
sS';'
I-101
sS','
I-101
ssI374
(dp560
S')'
I-21
sS';'
I-21
sS']'
I-21
sS','
I-21
ssI375
(dp561
S')'
I-13
sS';'
I-13
sS','
I-13
ssI376
(dp562
S')'
I-76
sS';'
I-76
sS','
I-76
ssI377
(dp563
S')'
I-102
sS';'
I-102
sS','
I-102
ssI378
(dp564
S'INFINITY'
p565
I412
ssI379
(dp566
S')'
I-14
sS';'
I-14
sS','
I-14
ssI380
(dp567
S')'
I-11
sS';'
I-11
sS','
I-11
ssI381
(dp568
S')'
I-99
sS';'
I-99
sS','
I-99
ssI382
(dp569
S')'
I-18
sS';'
I-18
sS','
I-18
ssI383
(dp570
S')'
I-105
sS';'
I-105
sS','
I-105
ssI384
(dp571
S')'
I-104
sS';'
I-104
sS','
I-104
ssI385
(dp572
S']'
I413
ssI386
(dp573
S')'
I-12
sS';'
I-12
sS','
I-12
ssI387
(dp574
S')'
I-78
sS';'
I-78
sS','
I-78
ssI388
(dp575
S')'
I-100
sS';'
I-100
sS','
I-100
ssI389
(dp576
S';'
I414
ssI390
(dp577
S'}'
I-92
ssI391
(dp578
g509
I373
sg156
I108
sg511
I383
sg512
I377
sS'-'
I378
sg513
I382
sg514
I384
sg515
I381
sg516
I388
ssI392
(dp579
S';'
I416
ssI393
(dp580
S';'
I417
ssI394
(dp581
S')'
I-206
ssI395
(dp582
g111
I80
sg112
I63
sg113
I70
sg114
I76
sS'('
I72
sg115
I64
sg116
I77
sg117
I66
sg118
I73
sg119
I87
sg120
I74
sg121
I90
sg122
I91
sg123
I92
sg124
I86
sg125
I68
sg126
I81
sg127
I82
sg128
I85
sg129
I89
ssI396
(dp583
S'>'
I419
ssI397
(dp584
S';'
I420
ssI398
(dp585
g4
I-135
sg5
I-135
sg6
I-135
sg7
I-135
sg8
I-135
sg9
I-135
sg10
I-135
sg11
I-135
sg12
I-135
sg13
I-135
sg14
I-135
sg15
I-135
sg16
I-135
sS'('
I-135
sg18
I-135
sg19
I-135
sg20
I-135
sg21
I-135
sg26
I-135
sg27
I-135
sg29
I-135
sg30
I-135
sg31
I-135
sg32
I-135
sg33
I-135
sS'['
I-135
sg35
I-135
sg36
I-135
sg38
I-135
sg39
I-135
sg40
I-135
sS'}'
I-135
sg42
I-135
sg43
I-135
sg44
I-135
sg46
I-135
sg47
I-135
sg48
I-135
sg49
I-135
sg50
I-135
ssI399
(dp586
g4
I-143
sg5
I-143
sg6
I-143
sg7
I-143
sg8
I-143
sg9
I-143
sg10
I-143
sg11
I-143
sg12
I-143
sg13
I-143
sg14
I-143
sg15
I-143
sg16
I-143
sS'('
I-143
sg18
I-143
sg19
I-143
sg20
I-143
sg21
I-143
sg26
I-143
sg27
I-143
sg29
I-143
sg30
I-143
sg31
I-143
sg32
I-143
sg33
I-143
sS'['
I-143
sg35
I-143
sg36
I-143
sg38
I-143
sg39
I-143
sg40
I-143
sS'}'
I-143
sg42
I-143
sg43
I-143
sg44
I-143
sg46
I-143
sg47
I-143
sg48
I-143
sg49
I-143
sg50
I-143
ssI400
(dp587
g111
I80
sg112
I63
sg113
I70
sg114
I76
sS'('
I72
sg115
I64
sg116
I77
sg117
I66
sg118
I73
sg119
I87
sg120
I74
sg121
I90
sg122
I91
sg123
I92
sg124
I86
sg125
I68
sg126
I81
sg127
I82
sg128
I85
sg129
I89
ssI401
(dp588
S']'
I422
ssI402
(dp589
S']'
I-119
ssI403
(dp590
S')'
I-249
sS']'
I-249
sS'}'
I-249
sS','
I195
ssI404
(dp591
S'}'
I-114
ssI405
(dp592
S')'
I-249
sS']'
I-249
sS'}'
I-249
sS','
I425
ssI406
(dp593
S'}'
I426
ssI407
(dp594
S'}'
I-113
ssI408
(dp595
S')'
I-249
sS']'
I-249
sS'}'
I-249
sS','
I195
ssI409
(dp596
g4
I-108
sg5
I-108
sg6
I-108
sg7
I-108
sg8
I-108
sg9
I-108
sg10
I-108
sg11
I-108
sg12
I-108
sg13
I-108
sg14
I-108
sg15
I-108
sg16
I-108
sS'('
I-108
sg18
I-108
sg19
I-108
sg20
I-108
sg21
I-108
sg26
I-108
sg27
I-108
sg29
I-108
sg30
I-108
sg31
I-108
sg32
I-108
sg33
I-108
sS'['
I-108
sg35
I-108
sg36
I-108
sg38
I-108
sg39
I-108
sg40
I-108
sS'}'
I-108
sg42
I-108
sg43
I-108
sg44
I-108
sg46
I-108
sg47
I-108
sg48
I-108
sg49
I-108
sg50
I-108
ssI410
(dp597
S';'
I428
ssI411
(dp598
S')'
I429
ssI412
(dp599
S')'
I-103
sS';'
I-103
sS','
I-103
ssI413
(dp600
S')'
I-80
sS';'
I-80
sS','
I-80
ssI414
(dp601
g4
I-69
sg9
I-69
sg12
I-69
sg13
I-69
sg15
I-69
sS'('
I-69
sg17
I-69
sg10
I-69
sg19
I-69
sg18
I-69
sg26
I-69
sg29
I-69
sg33
I-69
sS'['
I-69
sg47
I-69
sg48
I-69
sg40
I-69
sg42
I-69
sg43
I-69
sg44
I-69
sg46
I-69
sg36
I-69
sS'}'
I-69
sg49
I-69
ssI415
(dp602
S';'
I430
ssI416
(dp603
g4
I-33
sg5
I-33
sg9
I-33
sg20
I-33
sg12
I-33
sg13
I-33
sg15
I-33
sS'('
I-33
sg10
I-33
sg19
I-33
sg18
I-33
sg26
I-33
sg29
I-33
sg33
I-33
sS'['
I-33
sg47
I-33
sg39
I-33
sg40
I-33
sS'}'
I-33
sg42
I-33
sg43
I-33
sg44
I-33
sg46
I-33
sg36
I-33
sg48
I-33
sg49
I-33
ssI417
(dp604
g4
I-30
sg5
I-30
sg9
I-30
sg20
I-30
sg12
I-30
sg13
I-30
sg15
I-30
sS'('
I-30
sg10
I-30
sg19
I-30
sg18
I-30
sg26
I-30
sg29
I-30
sg33
I-30
sS'['
I-30
sg47
I-30
sg39
I-30
sg40
I-30
sS'}'
I-30
sg42
I-30
sg43
I-30
sg44
I-30
sg46
I-30
sg36
I-30
sg48
I-30
sg49
I-30
ssI418
(dp605
S'>'
I-171
ssI419
(dp606
S';'
I431
ssI420
(dp607
g4
I-176
sg5
I-176
sg6
I-176
sg7
I-176
sg8
I-176
sg9
I-176
sg10
I-176
sg11
I-176
sg12
I-176
sg13
I-176
sg14
I-176
sg15
I-176
sg16
I-176
sS'('
I-176
sg18
I-176
sg19
I-176
sg20
I-176
sg21
I-176
sg26
I-176
sg27
I-176
sg29
I-176
sg30
I-176
sg31
I-176
sg32
I-176
sg33
I-176
sS'['
I-176
sg35
I-176
sg36
I-176
sg38
I-176
sg39
I-176
sg40
I-176
sS'}'
I-176
sg42
I-176
sg43
I-176
sg44
I-176
sg46
I-176
sg47
I-176
sg48
I-176
sg49
I-176
sg50
I-176
ssI421
(dp608
S'>'
I432
ssI422
(dp609
S';'
I-111
ssI423
(dp610
S']'
I-120
ssI424
(dp611
S'}'
I-116
ssI425
(dp612
S'ATTRIBUTE'
p613
I433
sg355
I286
ssI426
(dp614
S';'
I-110
ssI427
(dp615
S'}'
I-117
ssI428
(dp616
g4
I-170
sg5
I-170
sg6
I-170
sg7
I-170
sg8
I-170
sg9
I-170
sg10
I-170
sg11
I-170
sg12
I-170
sg13
I-170
sg14
I-170
sg15
I-170
sg16
I-170
sS'('
I-170
sg18
I-170
sg19
I-170
sg20
I-170
sg21
I-170
sg26
I-170
sg27
I-170
sg29
I-170
sg30
I-170
sg31
I-170
sg32
I-170
sg33
I-170
sS'['
I-170
sg35
I-170
sg36
I-170
sg38
I-170
sg39
I-170
sg40
I-170
sS'}'
I-170
sg42
I-170
sg43
I-170
sg44
I-170
sg46
I-170
sg47
I-170
sg48
I-170
sg49
I-170
sg50
I-170
ssI429
(dp617
S';'
I434
ssI430
(dp618
g4
I-98
sg5
I-98
sg6
I-98
sg7
I-98
sg8
I-98
sg9
I-98
sg10
I-98
sg11
I-98
sg12
I-98
sg13
I-98
sg14
I-98
sg15
I-98
sg16
I-98
sS'('
I-98
sg18
I-98
sg19
I-98
sg20
I-98
sg21
I-98
sg26
I-98
sg27
I-98
sg29
I-98
sg30
I-98
sg31
I-98
sg32
I-98
sg33
I-98
sS'['
I-98
sg35
I-98
sg36
I-98
sg38
I-98
sg39
I-98
sg40
I-98
sS'}'
I-98
sg42
I-98
sg43
I-98
sg44
I-98
sg46
I-98
sg47
I-98
sg48
I-98
sg49
I-98
sg50
I-98
ssI431
(dp619
g4
I-169
sg5
I-169
sg6
I-169
sg7
I-169
sg8
I-169
sg9
I-169
sg10
I-169
sg11
I-169
sg12
I-169
sg13
I-169
sg14
I-169
sg15
I-169
sg16
I-169
sS'('
I-169
sg18
I-169
sg19
I-169
sg20
I-169
sg21
I-169
sg26
I-169
sg27
I-169
sg29
I-169
sg30
I-169
sg31
I-169
sg32
I-169
sg33
I-169
sS'['
I-169
sg35
I-169
sg36
I-169
sg38
I-169
sg39
I-169
sg40
I-169
sS'}'
I-169
sg42
I-169
sg43
I-169
sg44
I-169
sg46
I-169
sg47
I-169
sg48
I-169
sg49
I-169
sg50
I-169
ssI432
(dp620
S';'
I435
ssI433
(dp621
S'}'
I-115
ssI434
(dp622
g4
I-151
sg5
I-151
sg6
I-151
sg7
I-151
sg8
I-151
sg9
I-151
sg10
I-151
sg11
I-151
sg12
I-151
sg13
I-151
sg14
I-151
sg15
I-151
sg16
I-151
sS'('
I-151
sg18
I-151
sg19
I-151
sg20
I-151
sg21
I-151
sg26
I-151
sg27
I-151
sg29
I-151
sg30
I-151
sg31
I-151
sg32
I-151
sg33
I-151
sS'['
I-151
sg35
I-151
sg36
I-151
sg38
I-151
sg39
I-151
sg40
I-151
sS'}'
I-151
sg42
I-151
sg43
I-151
sg44
I-151
sg46
I-151
sg47
I-151
sg48
I-151
sg49
I-151
sg50
I-151
ssI435
(dp623
g4
I-175
sg5
I-175
sg6
I-175
sg7
I-175
sg8
I-175
sg9
I-175
sg10
I-175
sg11
I-175
sg12
I-175
sg13
I-175
sg14
I-175
sg15
I-175
sg16
I-175
sS'('
I-175
sg18
I-175
sg19
I-175
sg20
I-175
sg21
I-175
sg26
I-175
sg27
I-175
sg29
I-175
sg30
I-175
sg31
I-175
sg32
I-175
sg33
I-175
sS'['
I-175
sg35
I-175
sg36
I-175
sg38
I-175
sg39
I-175
sg40
I-175
sS'}'
I-175
sg42
I-175
sg43
I-175
sg44
I-175
sg46
I-175
sg47
I-175
sg48
I-175
sg49
I-175
sg50
I-175
ss.(dp1
I0
(dp2
S'Definitions'
p3
I2
sS'ExtendedAttributeList'
p4
I1
ssI1
(dp5
S'Definition'
p6
I9
sS'Exception'
p7
I10
sS'Partial'
p8
I17
sS'Dictionary'
p9
I6
sS'CallbackOrInterface'
p10
I5
sS'Enum'
p11
I7
sS'Typedef'
p12
I4
sS'Interface'
p13
I8
sS'ImplementsStatement'
p14
I14
ssI2
(dp15
sI3
(dp16
S'ExtendedAttribute'
p17
I23
sS'ExtendedAttributeStringLiteral'
p18
I24
sS'ExtendedAttributeNamedArgList'
p19
I22
sS'ExtendedAttributeArgList'
p20
I26
sS'ExtendedAttributeIdentList'
p21
I27
sS'ExtendedAttributeIdent'
p22
I25
sS'ExtendedAttributeNoArgs'
p23
I28
sS'ExtendedAttributeStringLiteralList'
p24
I29
ssI4
(dp25
sI5
(dp26
sI6
(dp27
sI7
(dp28
sI8
(dp29
sI9
(dp30
S'Definitions'
p31
I31
sg4
I1
ssI10
(dp32
sI11
(dp33
sI12
(dp34
sI13
(dp35
sI14
(dp36
sI15
(dp37
S'ExtendedAttributeListNoComments'
p38
I37
ssI16
(dp39
S'PartialDictionary'
p40
I40
sS'PartialInterface'
p41
I45
sS'PartialDefinition'
p42
I42
ssI17
(dp43
sI18
(dp44
S'Interface'
p45
I48
sS'CallbackRestOrInterface'
p46
I46
sS'CallbackRest'
p47
I47
ssI19
(dp48
sI20
(dp49
sI21
(dp50
sI22
(dp51
sI23
(dp52
S'ExtendedAttributes'
p53
I53
ssI24
(dp54
sI25
(dp55
sI26
(dp56
sI27
(dp57
sI28
(dp58
sI29
(dp59
sI30
(dp60
sI31
(dp61
sI32
(dp62
sI33
(dp63
S'Inheritance'
p64
I59
ssI34
(dp65
sI35
(dp66
sI36
(dp67
S'Inheritance'
p68
I62
ssI37
(dp69
S'NonAnyType'
p70
I75
sS'FloatType'
p71
I71
sS'UnionType'
p72
I83
sS'UnsignedIntegerType'
p73
I88
sS'PromiseType'
p74
I78
sS'PrimitiveType'
p75
I65
sS'SingleType'
p76
I67
sS'Type'
p77
I69
sS'UnrestrictedFloatType'
p78
I84
sS'IntegerType'
p79
I79
ssI38
(dp80
sI39
(dp81
S'ExtendedAttribute'
p82
I94
sg18
I24
sg19
I22
sg20
I26
sg21
I27
sg22
I25
sg23
I28
sg24
I29
ssI40
(dp83
sI41
(dp84
sI42
(dp85
sI43
(dp86
sI44
(dp87
sI45
(dp88
sI46
(dp89
sI47
(dp90
sI48
(dp91
sI49
(dp92
sI50
(dp93
sI51
(dp94
S'Inheritance'
p95
I99
ssI52
(dp96
sI53
(dp97
sI54
(dp98
S'ExtendedAttribute'
p99
I102
sg18
I24
sg19
I22
sg20
I26
sg21
I27
sg22
I25
sg23
I28
sg24
I29
ssI55
(dp100
S'ArgumentList'
p101
I104
sS'ExtendedAttributeList'
p102
I106
sS'Argument'
p103
I105
ssI56
(dp104
S'StringLiteral'
p105
I110
ssI57
(dp106
sI58
(dp107
sI59
(dp108
sI60
(dp109
sI61
(dp110
S'ExtendedAttributeList'
p111
I115
sS'EnumValueList'
p112
I114
ssI62
(dp113
sI63
(dp114
sI64
(dp115
sI65
(dp116
S'TypeSuffix'
p117
I117
ssI66
(dp118
g79
I120
ssI67
(dp119
sI68
(dp120
sI69
(dp121
sI70
(dp122
sI71
(dp123
sI72
(dp124
S'UnionMemberType'
p125
I123
sS'NonAnyType'
p126
I124
sg71
I71
sg73
I88
sg74
I78
sg75
I65
sS'UnionType'
p127
I122
sg78
I84
sg79
I79
ssI73
(dp128
S'OptionalLong'
p129
I126
ssI74
(dp130
sI75
(dp131
sI76
(dp132
sI77
(dp133
sI78
(dp134
S'Null'
p135
I130
ssI79
(dp136
sI80
(dp137
sI81
(dp138
sI82
(dp139
sI83
(dp140
S'TypeSuffix'
p141
I132
ssI84
(dp142
sI85
(dp143
S'TypeSuffix'
p144
I133
ssI86
(dp145
sI87
(dp146
sI88
(dp147
sI89
(dp148
S'TypeSuffixStartingWithArray'
p149
I135
ssI90
(dp150
sI91
(dp151
sI92
(dp152
g71
I137
ssI93
(dp153
sI94
(dp154
S'ExtendedAttributes'
p155
I138
ssI95
(dp156
sI96
(dp157
sI97
(dp158
sI98
(dp159
g70
I75
sg71
I71
sS'Type'
p160
I144
sg73
I88
sg74
I78
sg75
I65
sg76
I67
sS'ReturnType'
p161
I145
sg72
I83
sg78
I84
sg79
I79
ssI99
(dp162
sI100
(dp163
sI101
(dp164
sI102
(dp165
S'ExtendedAttributes'
p166
I148
ssI103
(dp167
sI104
(dp168
sI105
(dp169
S'Arguments'
p170
I151
ssI106
(dp171
g70
I75
sg73
I88
sg71
I71
sg72
I83
sg75
I65
sg74
I78
sS'OptionalOrRequiredArgument'
p172
I154
sg79
I79
sg76
I67
sS'Type'
p173
I152
sg78
I84
ssI107
(dp174
sI108
(dp175
sI109
(dp176
S'StringLiteralList'
p177
I157
sS'StringLiteral'
p178
I155
sS'IdentifierList'
p179
I156
ssI110
(dp180
sI111
(dp181
sI112
(dp182
sI113
(dp183
S'ExtendedAttributeList'
p184
I161
sS'DictionaryMembers'
p185
I160
ssI114
(dp186
sI115
(dp187
sI116
(dp188
S'ExtendedAttributeList'
p189
I166
sS'ExceptionMembers'
p190
I165
ssI117
(dp191
sI118
(dp192
sI119
(dp193
S'TypeSuffixStartingWithArray'
p194
I170
ssI120
(dp195
sI121
(dp196
sI122
(dp197
S'TypeSuffix'
p198
I172
ssI123
(dp199
sI124
(dp200
sI125
(dp201
sI126
(dp202
sI127
(dp203
sI128
(dp204
g70
I75
sg71
I71
sg72
I83
sg73
I88
sg74
I78
sg75
I65
sg76
I67
sS'Type'
p205
I175
sg78
I84
sg79
I79
ssI129
(dp206
g70
I75
sg71
I71
sg72
I83
sg73
I88
sg74
I78
sg75
I65
sg76
I67
sS'Type'
p207
I176
sg78
I84
sg79
I79
ssI130
(dp208
sI131
(dp209
sI132
(dp210
sI133
(dp211
sI134
(dp212
sI135
(dp213
sI136
(dp214
g70
I75
sg71
I71
sg72
I83
sg73
I88
sg74
I78
sg75
I65
sg76
I67
sS'ReturnType'
p215
I178
sg160
I144
sg78
I84
sg79
I79
ssI137
(dp216
sI138
(dp217
sI139
(dp218
S'ExtendedAttribute'
p219
I102
sg18
I24
sg19
I22
sg20
I26
sg21
I27
sg22
I25
sg23
I28
sg24
I29
ssI140
(dp220
sI141
(dp221
S'DictionaryMembers'
p222
I180
sg184
I161
ssI142
(dp223
S'InterfaceMembers'
p224
I181
sS'ExtendedAttributeList'
p225
I182
ssI143
(dp226
sI144
(dp227
sI145
(dp228
sI146
(dp229
S'InterfaceMembers'
p230
I185
sg225
I182
ssI147
(dp231
sI148
(dp232
sI149
(dp233
sI150
(dp234
g102
I106
sS'Argument'
p235
I187
ssI151
(dp236
sI152
(dp237
S'Ellipsis'
p238
I189
ssI153
(dp239
g70
I75
sg71
I71
sg173
I191
sg73
I88
sg74
I78
sg75
I65
sg76
I67
sg72
I83
sg78
I84
sg79
I79
ssI154
(dp240
sI155
(dp241
sI156
(dp242
sI157
(dp243
sI158
(dp244
S'Identifiers'
p245
I196
ssI159
(dp246
S'ArgumentList'
p247
I197
sg102
I106
sg103
I105
ssI160
(dp248
sI161
(dp249
S'DictionaryMember'
p250
I201
sS'Required'
p251
I200
ssI162
(dp252
sI163
(dp253
sI164
(dp254
S'EnumValueListComma'
p255
I205
ssI165
(dp256
sI166
(dp257
g70
I75
sS'Const'
p258
I207
sg73
I88
sg71
I71
sg72
I83
sS'ExceptionMember'
p259
I214
sg75
I65
sS'Attribute'
p260
I208
sg74
I78
sS'ReadOnly'
p261
I215
sS'ExceptionOperation'
p262
I209
sg79
I79
sg76
I67
sS'ExceptionField'
p263
I210
sS'Type'
p264
I212
sg78
I84
ssI167
(dp265
sI168
(dp266
sI169
(dp267
S'TypeSuffix'
p268
I218
ssI170
(dp269
sI171
(dp270
sI172
(dp271
sI173
(dp272
g125
I219
sg126
I124
sg71
I71
sg73
I88
sg74
I78
sg75
I65
sg127
I122
sg78
I84
sg79
I79
ssI174
(dp273
sI175
(dp274
sI176
(dp275
sI177
(dp276
S'TypeSuffix'
p277
I223
ssI178
(dp278
sI179
(dp279
sI180
(dp280
sI181
(dp281
sI182
(dp282
S'InterfaceMember'
p283
I247
sS'AttributeRest'
p284
I248
sS'MaplikeRest'
p285
I228
sg76
I67
sS'Const'
p286
I227
sS'Type'
p287
I144
sS'Stringifier'
p288
I238
sg71
I71
sS'StaticMember'
p289
I230
sS'ReadonlyMember'
p290
I253
sg70
I75
sS'SpecialOperation'
p291
I255
sg74
I78
sg75
I65
sS'ReadWriteSetlike'
p292
I241
sS'ReturnType'
p293
I257
sg72
I83
sg78
I84
sS'Serializer'
p294
I250
sS'ReadWriteAttribute'
p295
I243
sS'SetlikeRest'
p296
I246
sg73
I88
sS'ReadWriteMaplike'
p297
I232
sS'Iterable'
p298
I234
sS'Operation'
p299
I242
sS'Special'
p300
I251
sg79
I79
ssI183
(dp301
sI184
(dp302
S'ArgumentList'
p303
I259
sg102
I106
sg103
I105
ssI185
(dp304
sI186
(dp305
sI187
(dp306
S'Arguments'
p307
I261
ssI188
(dp308
sI189
(dp309
S'ArgumentName'
p310
I267
sS'ArgumentNameKeyword'
p311
I279
ssI190
(dp312
sI191
(dp313
S'ArgumentName'
p314
I284
sg311
I279
ssI192
(dp315
S'StringLiteralList'
p316
I285
sg178
I155
ssI193
(dp317
sI194
(dp318
sI195
(dp319
sI196
(dp320
sI197
(dp321
sI198
(dp322
sI199
(dp323
sI200
(dp324
g70
I75
sg71
I71
sg72
I83
sg73
I88
sg74
I78
sg75
I65
sg76
I67
sS'Type'
p325
I289
sg78
I84
sg79
I79
ssI201
(dp326
g184
I161
sS'DictionaryMembers'
p327
I290
ssI202
(dp328
sI203
(dp329
sI204
(dp330
S'ExtendedAttributeList'
p331
I291
sS'EnumValueListString'
p332
I292
ssI205
(dp333
sI206
(dp334
sI207
(dp335
sI208
(dp336
sI209
(dp337
sI210
(dp338
sI211
(dp339
S'ConstType'
p340
I296
sg73
I88
sg71
I71
sS'PrimitiveType'
p341
I294
sg79
I79
sg78
I84
ssI212
(dp342
sI213
(dp343
sI214
(dp344
g189
I166
sS'ExceptionMembers'
p345
I298
ssI215
(dp346
sI216
(dp347
sI217
(dp348
S'TypeSuffix'
p349
I300
ssI218
(dp350
sI219
(dp351
S'UnionMemberTypes'
p352
I302
ssI220
(dp353
S'TypeSuffix'
p354
I303
ssI221
(dp355
S'Null'
p356
I304
ssI222
(dp357
S'Null'
p358
I305
ssI223
(dp359
sI224
(dp360
sI225
(dp361
sI226
(dp362
sI227
(dp363
sI228
(dp364
sI229
(dp365
sI230
(dp366
sI231
(dp367
sI232
(dp368
sI233
(dp369
sI234
(dp370
sI235
(dp371
sI236
(dp372
g70
I75
sg71
I71
sg160
I144
sS'StaticMemberRest'
p373
I310
sg75
I65
sg74
I78
sS'ReadOnly'
p374
I312
sg73
I88
sg76
I67
sS'ReturnType'
p375
I311
sg72
I83
sg78
I84
sg79
I79
ssI237
(dp376
sI238
(dp377
sI239
(dp378
S'ReadonlyMemberRest'
p379
I316
sS'SetlikeRest'
p380
I314
sS'MaplikeRest'
p381
I315
sS'AttributeRest'
p382
I313
ssI240
(dp383
sI241
(dp384
sI242
(dp385
sI243
(dp386
sI244
(dp387
g70
I75
sS'StringifierRest'
p388
I317
sg160
I144
sg71
I71
sg75
I65
sg74
I78
sS'ReadOnly'
p389
I320
sg73
I88
sg76
I67
sS'ReturnType'
p390
I319
sg72
I83
sg78
I84
sg79
I79
ssI245
(dp391
g70
I75
sg71
I71
sg72
I83
sg73
I88
sg74
I78
sg75
I65
sg76
I67
sS'Type'
p392
I321
sg78
I84
sg79
I79
ssI246
(dp393
sI247
(dp394
S'InterfaceMembers'
p395
I322
sg225
I182
ssI248
(dp396
sI249
(dp397
S'ReadOnly'
p398
I323
ssI250
(dp399
sI251
(dp400
S'Specials'
p401
I324
sg300
I325
ssI252
(dp402
sI253
(dp403
sI254
(dp404
S'SerializerRest'
p405
I327
sg70
I75
sg71
I71
sg160
I144
sg73
I88
sg74
I78
sg75
I65
sg76
I67
sS'ReturnType'
p406
I330
sg72
I83
sg78
I84
sg79
I79
ssI255
(dp407
sI256
(dp408
sI257
(dp409
S'OperationRest'
p410
I332
sS'OptionalIdentifier'
p411
I333
ssI258
(dp412
sI259
(dp413
sI260
(dp414
sI261
(dp415
sI262
(dp416
sI263
(dp417
sI264
(dp418
sI265
(dp419
sI266
(dp420
sI267
(dp421
sI268
(dp422
sI269
(dp423
sI270
(dp424
sI271
(dp425
sI272
(dp426
sI273
(dp427
sI274
(dp428
sI275
(dp429
sI276
(dp430
sI277
(dp431
sI278
(dp432
sI279
(dp433
sI280
(dp434
sI281
(dp435
sI282
(dp436
sI283
(dp437
sI284
(dp438
S'Default'
p439
I338
ssI285
(dp440
sI286
(dp441
S'Identifiers'
p442
I339
ssI287
(dp443
sI288
(dp444
sI289
(dp445
sI290
(dp446
sI291
(dp447
sI292
(dp448
sI293
(dp449
sI294
(dp450
S'Null'
p451
I342
ssI295
(dp452
S'Null'
p453
I343
ssI296
(dp454
sI297
(dp455
sI298
(dp456
sI299
(dp457
g70
I75
sg71
I71
sg72
I83
sg73
I88
sg74
I78
sg75
I65
sg76
I67
sS'Type'
p458
I347
sg78
I84
sg79
I79
ssI300
(dp459
sI301
(dp460
S'UnionMemberType'
p461
I348
sg126
I124
sg71
I71
sg73
I88
sg74
I78
sg75
I65
sg127
I122
sg78
I84
sg79
I79
ssI302
(dp462
sI303
(dp463
sI304
(dp464
sI305
(dp465
sI306
(dp466
sI307
(dp467
sI308
(dp468
g70
I75
sg71
I71
sg72
I83
sg73
I88
sg74
I78
sg75
I65
sg76
I67
sg287
I350
sg78
I84
sg79
I79
ssI309
(dp469
g70
I75
sg71
I71
sg72
I83
sg73
I88
sg74
I78
sg75
I65
sg76
I67
sS'Type'
p470
I351
sg78
I84
sg79
I79
ssI310
(dp471
sI311
(dp472
S'OperationRest'
p473
I352
sg411
I333
ssI312
(dp474
S'AttributeRest'
p475
I353
ssI313
(dp476
sI314
(dp477
sI315
(dp478
sI316
(dp479
sI317
(dp480
sI318
(dp481
sI319
(dp482
S'OperationRest'
p483
I354
sg411
I333
ssI320
(dp484
S'AttributeRest'
p485
I355
ssI321
(dp486
S'AttributeName'
p487
I357
sS'AttributeNameKeyword'
p488
I359
ssI322
(dp489
sI323
(dp490
g284
I360
ssI324
(dp491
g70
I75
sg71
I71
sg160
I144
sg75
I65
sg74
I78
sg73
I88
sg76
I67
sS'ReturnType'
p492
I361
sg72
I83
sg78
I84
sg79
I79
ssI325
(dp493
S'Specials'
p494
I362
sS'Special'
p495
I325
ssI326
(dp496
g70
I75
sg71
I71
sg72
I83
sg73
I88
sg74
I78
sg75
I65
sg76
I67
sS'Type'
p497
I363
sg78
I84
sg79
I79
ssI327
(dp498
sI328
(dp499
sI329
(dp500
S'SerializationPattern'
p501
I367
ssI330
(dp502
S'OperationRest'
p503
I368
sg411
I333
ssI331
(dp504
g70
I75
sg71
I71
sg72
I83
sg73
I88
sg74
I78
sg75
I65
sg76
I67
sS'Type'
p505
I369
sg78
I84
sg79
I79
ssI332
(dp506
sI333
(dp507
sI334
(dp508
sI335
(dp509
sI336
(dp510
sI337
(dp511
S'DefaultValue'
p512
I376
sS'ConstValue'
p513
I387
sS'StringLiteral'
p514
I379
sS'FloatLiteral'
p515
I386
sS'BooleanLiteral'
p516
I380
sS'null'
p517
I372
sS'IntegerLiteral'
p518
I375
ssI338
(dp519
sI339
(dp520
sI340
(dp521
S'Default'
p522
I389
ssI341
(dp523
S'EnumValueListComma'
p524
I390
ssI342
(dp525
sI343
(dp526
sI344
(dp527
sI345
(dp528
sI346
(dp529
sI347
(dp530
sI348
(dp531
S'UnionMemberTypes'
p532
I394
ssI349
(dp533
sI350
(dp534
S'OptionalType'
p535
I396
ssI351
(dp536
sI352
(dp537
sI353
(dp538
sI354
(dp539
sI355
(dp540
sI356
(dp541
sI357
(dp542
sI358
(dp543
sI359
(dp544
sI360
(dp545
sI361
(dp546
S'OperationRest'
p547
I399
sg411
I333
ssI362
(dp548
sI363
(dp549
sI364
(dp550
S'SerializationPatternList'
p551
I401
ssI365
(dp552
sI366
(dp553
S'SerializationPatternMap'
p554
I406
ssI367
(dp555
sI368
(dp556
sI369
(dp557
sI370
(dp558
S'ArgumentList'
p559
I411
sg102
I106
sg103
I105
ssI371
(dp560
sI372
(dp561
sI373
(dp562
sI374
(dp563
sI375
(dp564
sI376
(dp565
sI377
(dp566
sI378
(dp567
sI379
(dp568
sI380
(dp569
sI381
(dp570
sI382
(dp571
sI383
(dp572
sI384
(dp573
sI385
(dp574
sI386
(dp575
sI387
(dp576
sI388
(dp577
sI389
(dp578
sI390
(dp579
sI391
(dp580
S'ConstValue'
p581
I415
sg514
I379
sg516
I380
sg515
I386
sg517
I372
sg518
I375
ssI392
(dp582
sI393
(dp583
sI394
(dp584
sI395
(dp585
g70
I75
sg71
I71
sg72
I83
sg73
I88
sg74
I78
sg75
I65
sg76
I67
sS'Type'
p586
I418
sg78
I84
sg79
I79
ssI396
(dp587
sI397
(dp588
sI398
(dp589
sI399
(dp590
sI400
(dp591
g70
I75
sg71
I71
sg72
I83
sg73
I88
sg74
I78
sg75
I65
sg76
I67
sg497
I421
sg78
I84
sg79
I79
ssI401
(dp592
sI402
(dp593
sI403
(dp594
S'Identifiers'
p595
I423
ssI404
(dp596
sI405
(dp597
S'Identifiers'
p598
I424
ssI406
(dp599
sI407
(dp600
sI408
(dp601
S'Identifiers'
p602
I427
ssI409
(dp603
sI410
(dp604
sI411
(dp605
sI412
(dp606
sI413
(dp607
sI414
(dp608
sI415
(dp609
sI416
(dp610
sI417
(dp611
sI418
(dp612
sI419
(dp613
sI420
(dp614
sI421
(dp615
sI422
(dp616
sI423
(dp617
sI424
(dp618
sI425
(dp619
sI426
(dp620
sI427
(dp621
sI428
(dp622
sI429
(dp623
sI430
(dp624
sI431
(dp625
sI432
(dp626
sI433
(dp627
sI434
(dp628
sI435
(dp629
s.(lp1
(S"S' -> Definitions"
p2
S"S'"
p3
I1
NNNtp4
a(S'Definitions -> ExtendedAttributeList Definition Definitions'
p5
S'Definitions'
p6
I3
S'p_Definitions'
p7
S'../../third_party/WebKit/Source/bindings/scripts/blink_idl_parser.py'
p8
I108
tp9
a(S'Definitions -> <empty>'
p10
g6
I0
g7
g8
I109
tp11
a(S'Definition -> CallbackOrInterface'
p12
S'Definition'
p13
I1
S'p_Definition'
p14
S'../../third_party/WebKit/Source/bindings/scripts/../../../../../tools/idl_parser/idl_parser.py'
p15
I198
tp16
a(S'Definition -> Partial'
p17
g13
I1
g14
g15
I199
tp18
a(S'Definition -> Dictionary'
p19
g13
I1
g14
g15
I200
tp20
a(S'Definition -> Exception'
p21
g13
I1
g14
g15
I201
tp22
a(S'Definition -> Enum'
p23
g13
I1
g14
g15
I202
tp24
a(S'Definition -> Typedef'
p25
g13
I1
g14
g15
I203
tp26
a(S'Definition -> ImplementsStatement'
p27
g13
I1
g14
g15
I204
tp28
a(S'Definition -> error ;'
p29
S'Definition'
p30
I2
S'p_DefinitionError'
p31
S'../../third_party/WebKit/Source/bindings/scripts/../../../../../tools/idl_parser/idl_parser.py'
p32
I209
tp33
a(S'ConstValue -> BooleanLiteral'
p34
S'ConstValue'
p35
I1
S'p_ConstValue'
p36
S'../../third_party/WebKit/Source/bindings/scripts/blink_idl_parser.py'
p37
I209
tp38
a(S'ConstValue -> FloatLiteral'
p39
g35
I1
g36
g37
I210
tp40
a(S'ConstValue -> IntegerLiteral'
p41
g35
I1
g36
g37
I211
tp42
a(S'ConstValue -> StringLiteral'
p43
g35
I1
g36
g37
I212
tp44
a(S'ConstValue -> null'
p45
g35
I1
g36
g37
I213
tp46
a(S'CallbackOrInterface -> CALLBACK CallbackRestOrInterface'
p47
S'CallbackOrInterface'
p48
I2
S'p_CallbackOrInterface'
p49
S'../../third_party/WebKit/Source/bindings/scripts/../../../../../tools/idl_parser/idl_parser.py'
p50
I214
tp51
a(S'CallbackOrInterface -> Interface'
p52
g48
I1
g49
g50
I215
tp53
a(S'IntegerLiteral -> integer'
p54
S'IntegerLiteral'
p55
I1
S'p_IntegerLiteral'
p56
S'../../third_party/WebKit/Source/bindings/scripts/blink_idl_parser.py'
p57
I223
tp58
a(S'CallbackRestOrInterface -> CallbackRest'
p59
S'CallbackRestOrInterface'
p60
I1
S'p_CallbackRestOrInterface'
p61
S'../../third_party/WebKit/Source/bindings/scripts/../../../../../tools/idl_parser/idl_parser.py'
p62
I224
tp63
a(S'CallbackRestOrInterface -> Interface'
p64
g60
I1
g61
g62
I225
tp65
a(S'StringLiteral -> string'
p66
S'StringLiteral'
p67
I1
S'p_StringLiteral'
p68
S'../../third_party/WebKit/Source/bindings/scripts/blink_idl_parser.py'
p69
I229
tp70
a(S'Interface -> INTERFACE identifier Inheritance { InterfaceMembers } ;'
p71
S'Interface'
p72
I7
S'p_Interface'
p73
S'../../third_party/WebKit/Source/bindings/scripts/../../../../../tools/idl_parser/idl_parser.py'
p74
I230
tp75
a(S'Interface -> INTERFACE identifier Inheritance { error'
p76
S'Interface'
p77
I5
S'p_InterfaceError'
p78
S'../../third_party/WebKit/Source/bindings/scripts/../../../../../tools/idl_parser/idl_parser.py'
p79
I235
tp80
a(S'ExceptionMember -> Const'
p81
S'ExceptionMember'
p82
I1
S'p_ExceptionMember'
p83
S'../../third_party/WebKit/Source/bindings/scripts/blink_idl_parser.py'
p84
I235
tp85
a(S'ExceptionMember -> ExceptionField'
p86
g82
I1
g83
g84
I236
tp87
a(S'ExceptionMember -> Attribute'
p88
g82
I1
g83
g84
I237
tp89
a(S'ExceptionMember -> ExceptionOperation'
p90
g82
I1
g83
g84
I238
tp91
a(S'Partial -> PARTIAL PartialDefinition'
p92
S'Partial'
p93
I2
S'p_Partial'
p94
S'../../third_party/WebKit/Source/bindings/scripts/../../../../../tools/idl_parser/idl_parser.py'
p95
I240
tp96
a(S'Partial -> PARTIAL error'
p97
S'Partial'
p98
I2
S'p_PartialError'
p99
S'../../third_party/WebKit/Source/bindings/scripts/../../../../../tools/idl_parser/idl_parser.py'
p100
I246
tp101
a(S'Attribute -> ReadOnly ATTRIBUTE Type identifier ;'
p102
S'Attribute'
p103
I5
S'p_Attribute'
p104
S'../../third_party/WebKit/Source/bindings/scripts/blink_idl_parser.py'
p105
I248
tp106
a(S'PartialDefinition -> PartialDictionary'
p107
S'PartialDefinition'
p108
I1
S'p_PartialDefinition'
p109
S'../../third_party/WebKit/Source/bindings/scripts/../../../../../tools/idl_parser/idl_parser.py'
p110
I251
tp111
a(S'PartialDefinition -> PartialInterface'
p112
g108
I1
g109
g110
I252
tp113
a(S'ExceptionOperation -> Type identifier ( ) ;'
p114
S'ExceptionOperation'
p115
I5
S'p_ExceptionOperation'
p116
S'../../third_party/WebKit/Source/bindings/scripts/blink_idl_parser.py'
p117
I254
tp118
a(S'PartialInterface -> INTERFACE identifier { InterfaceMembers } ;'
p119
S'PartialInterface'
p120
I6
S'p_PartialInterface'
p121
S'../../third_party/WebKit/Source/bindings/scripts/../../../../../tools/idl_parser/idl_parser.py'
p122
I257
tp123
a(S'InterfaceMembers -> ExtendedAttributeList InterfaceMember InterfaceMembers'
p124
S'InterfaceMembers'
p125
I3
S'p_InterfaceMembers'
p126
S'../../third_party/WebKit/Source/bindings/scripts/../../../../../tools/idl_parser/idl_parser.py'
p127
I262
tp128
a(S'InterfaceMembers -> <empty>'
p129
g125
I0
g126
g127
I263
tp130
a(S'ExtendedAttributeList -> [ ExtendedAttribute ExtendedAttributes ]'
p131
S'ExtendedAttributeList'
p132
I4
S'p_ExtendedAttributeList'
p133
S'../../third_party/WebKit/Source/bindings/scripts/blink_idl_parser.py'
p134
I266
tp135
a(S'ExtendedAttributeList -> <empty>'
p136
g132
I0
g133
g134
I267
tp137
a(S'InterfaceMembers -> error'
p138
S'InterfaceMembers'
p139
I1
S'p_InterfaceMembersError'
p140
S'../../third_party/WebKit/Source/bindings/scripts/../../../../../tools/idl_parser/idl_parser.py'
p141
I270
tp142
a(S'InterfaceMember -> Const'
p143
S'InterfaceMember'
p144
I1
S'p_InterfaceMember'
p145
S'../../third_party/WebKit/Source/bindings/scripts/../../../../../tools/idl_parser/idl_parser.py'
p146
I275
tp147
a(S'InterfaceMember -> Operation'
p148
g144
I1
g145
g146
I276
tp149
a(S'InterfaceMember -> Serializer'
p150
g144
I1
g145
g146
I277
tp151
a(S'InterfaceMember -> Stringifier'
p152
g144
I1
g145
g146
I278
tp153
a(S'InterfaceMember -> StaticMember'
p154
g144
I1
g145
g146
I279
tp155
a(S'InterfaceMember -> Iterable'
p156
g144
I1
g145
g146
I280
tp157
a(S'InterfaceMember -> ReadonlyMember'
p158
g144
I1
g145
g146
I281
tp159
a(S'InterfaceMember -> ReadWriteAttribute'
p160
g144
I1
g145
g146
I282
tp161
a(S'InterfaceMember -> ReadWriteMaplike'
p162
g144
I1
g145
g146
I283
tp163
a(S'InterfaceMember -> ReadWriteSetlike'
p164
g144
I1
g145
g146
I284
tp165
a(S'ExtendedAttributeList -> [ ExtendedAttribute , error'
p166
S'ExtendedAttributeList'
p167
I4
S'p_ExtendedAttributeListError'
p168
S'../../third_party/WebKit/Source/bindings/scripts/blink_idl_parser.py'
p169
I275
tp170
a(S'ExtendedAttributes -> , ExtendedAttribute ExtendedAttributes'
p171
S'ExtendedAttributes'
p172
I3
S'p_ExtendedAttributes'
p173
S'../../third_party/WebKit/Source/bindings/scripts/blink_idl_parser.py'
p174
I282
tp175
a(S'ExtendedAttributes -> ,'
p176
g172
I1
g173
g174
I283
tp177
a(S'ExtendedAttributes -> <empty>'
p178
g172
I0
g173
g174
I284
tp179
a(S'Dictionary -> DICTIONARY identifier Inheritance { DictionaryMembers } ;'
p180
S'Dictionary'
p181
I7
S'p_Dictionary'
p182
S'../../third_party/WebKit/Source/bindings/scripts/../../../../../tools/idl_parser/idl_parser.py'
p183
I289
tp184
a(S'ExtendedAttribute -> ExtendedAttributeNoArgs'
p185
S'ExtendedAttribute'
p186
I1
S'p_ExtendedAttribute'
p187
S'../../third_party/WebKit/Source/bindings/scripts/blink_idl_parser.py'
p188
I290
tp189
a(S'ExtendedAttribute -> ExtendedAttributeArgList'
p190
g186
I1
g187
g188
I291
tp191
a(S'ExtendedAttribute -> ExtendedAttributeIdent'
p192
g186
I1
g187
g188
I292
tp193
a(S'ExtendedAttribute -> ExtendedAttributeIdentList'
p194
g186
I1
g187
g188
I293
tp195
a(S'ExtendedAttribute -> ExtendedAttributeNamedArgList'
p196
g186
I1
g187
g188
I294
tp197
a(S'ExtendedAttribute -> ExtendedAttributeStringLiteral'
p198
g186
I1
g187
g188
I295
tp199
a(S'ExtendedAttribute -> ExtendedAttributeStringLiteralList'
p200
g186
I1
g187
g188
I296
tp201
a(S'Dictionary -> DICTIONARY error ;'
p202
S'Dictionary'
p203
I3
S'p_DictionaryError'
p204
S'../../third_party/WebKit/Source/bindings/scripts/../../../../../tools/idl_parser/idl_parser.py'
p205
I294
tp206
a(S'Dictionary -> DICTIONARY identifier Inheritance { error'
p207
S'Dictionary'
p208
I5
S'p_DictionaryError2'
p209
S'../../third_party/WebKit/Source/bindings/scripts/../../../../../tools/idl_parser/idl_parser.py'
p210
I300
tp211
a(S'ExtendedAttributeStringLiteral -> identifier = StringLiteral'
p212
S'ExtendedAttributeStringLiteral'
p213
I3
S'p_ExtendedAttributeStringLiteral'
p214
S'../../third_party/WebKit/Source/bindings/scripts/blink_idl_parser.py'
p215
I301
tp216
a(S'DictionaryMembers -> ExtendedAttributeList DictionaryMember DictionaryMembers'
p217
S'DictionaryMembers'
p218
I3
S'p_DictionaryMembers'
p219
S'../../third_party/WebKit/Source/bindings/scripts/../../../../../tools/idl_parser/idl_parser.py'
p220
I305
tp221
a(S'DictionaryMembers -> <empty>'
p222
g218
I0
g219
g220
I306
tp223
a(S'ExtendedAttributeStringLiteralList -> identifier = ( StringLiteralList )'
p224
S'ExtendedAttributeStringLiteralList'
p225
I5
S'p_ExtendedAttributeStringLiteralList'
p226
S'../../third_party/WebKit/Source/bindings/scripts/blink_idl_parser.py'
p227
I311
tp228
a(S'DictionaryMembers -> ExtendedAttributeList error'
p229
S'DictionaryMembers'
p230
I2
S'p_DictionaryMembersError'
p231
S'../../third_party/WebKit/Source/bindings/scripts/../../../../../tools/idl_parser/idl_parser.py'
p232
I313
tp233
a(S'DictionaryMember -> Required Type identifier Default ;'
p234
S'DictionaryMember'
p235
I5
S'p_DictionaryMember'
p236
S'../../third_party/WebKit/Source/bindings/scripts/../../../../../tools/idl_parser/idl_parser.py'
p237
I318
tp238
a(S'StringLiteralList -> StringLiteral , StringLiteralList'
p239
S'StringLiteralList'
p240
I3
S'p_StringLiteralList'
p241
S'../../third_party/WebKit/Source/bindings/scripts/blink_idl_parser.py'
p242
I318
tp243
a(S'StringLiteralList -> StringLiteral'
p244
g240
I1
g241
g242
I319
tp245
a(S'Required -> REQUIRED'
p246
S'Required'
p247
I1
S'p_Required'
p248
S'../../third_party/WebKit/Source/bindings/scripts/../../../../../tools/idl_parser/idl_parser.py'
p249
I323
tp250
a(S'Required -> <empty>'
p251
g247
I0
g248
g249
I324
tp252
a(S'PartialDictionary -> DICTIONARY identifier { DictionaryMembers } ;'
p253
S'PartialDictionary'
p254
I6
S'p_PartialDictionary'
p255
S'../../third_party/WebKit/Source/bindings/scripts/../../../../../tools/idl_parser/idl_parser.py'
p256
I330
tp257
a(S'PartialDictionary -> DICTIONARY error ;'
p258
S'PartialDictionary'
p259
I3
S'p_PartialDictionaryError'
p260
S'../../third_party/WebKit/Source/bindings/scripts/../../../../../tools/idl_parser/idl_parser.py'
p261
I336
tp262
a(S'Default -> = DefaultValue'
p263
S'Default'
p264
I2
S'p_Default'
p265
S'../../third_party/WebKit/Source/bindings/scripts/../../../../../tools/idl_parser/idl_parser.py'
p266
I341
tp267
a(S'Default -> <empty>'
p268
g264
I0
g265
g266
I342
tp269
a(S'DefaultValue -> ConstValue'
p270
S'DefaultValue'
p271
I1
S'p_DefaultValue'
p272
S'../../third_party/WebKit/Source/bindings/scripts/../../../../../tools/idl_parser/idl_parser.py'
p273
I348
tp274
a(S'DefaultValue -> string'
p275
g271
I1
g272
g273
I349
tp276
a(S'DefaultValue -> [ ]'
p277
g271
I2
g272
g273
I350
tp278
a(S'Exception -> EXCEPTION identifier Inheritance { ExceptionMembers } ;'
p279
S'Exception'
p280
I7
S'p_Exception'
p281
S'../../third_party/WebKit/Source/bindings/scripts/../../../../../tools/idl_parser/idl_parser.py'
p282
I362
tp283
a(S'ExceptionMembers -> ExtendedAttributeList ExceptionMember ExceptionMembers'
p284
S'ExceptionMembers'
p285
I3
S'p_ExceptionMembers'
p286
S'../../third_party/WebKit/Source/bindings/scripts/../../../../../tools/idl_parser/idl_parser.py'
p287
I367
tp288
a(S'ExceptionMembers -> <empty>'
p289
g285
I0
g286
g287
I368
tp290
a(S'ExceptionMembers -> error'
p291
S'ExceptionMembers'
p292
I1
S'p_ExceptionMembersError'
p293
S'../../third_party/WebKit/Source/bindings/scripts/../../../../../tools/idl_parser/idl_parser.py'
p294
I375
tp295
a(S'Inheritance -> : identifier'
p296
S'Inheritance'
p297
I2
S'p_Inheritance'
p298
S'../../third_party/WebKit/Source/bindings/scripts/../../../../../tools/idl_parser/idl_parser.py'
p299
I380
tp300
a(S'Inheritance -> <empty>'
p301
g297
I0
g298
g299
I381
tp302
a(S'Enum -> ENUM identifier { EnumValueList } ;'
p303
S'Enum'
p304
I6
S'p_Enum'
p305
S'../../third_party/WebKit/Source/bindings/scripts/../../../../../tools/idl_parser/idl_parser.py'
p306
I387
tp307
a(S'Enum -> ENUM error ;'
p308
S'Enum'
p309
I3
S'p_EnumError'
p310
S'../../third_party/WebKit/Source/bindings/scripts/../../../../../tools/idl_parser/idl_parser.py'
p311
I392
tp312
a(S'EnumValueList -> ExtendedAttributeList string EnumValueListComma'
p313
S'EnumValueList'
p314
I3
S'p_EnumValueList'
p315
S'../../third_party/WebKit/Source/bindings/scripts/../../../../../tools/idl_parser/idl_parser.py'
p316
I397
tp317
a(S'EnumValueListComma -> , EnumValueListString'
p318
S'EnumValueListComma'
p319
I2
S'p_EnumValueListComma'
p320
S'../../third_party/WebKit/Source/bindings/scripts/../../../../../tools/idl_parser/idl_parser.py'
p321
I403
tp322
a(S'EnumValueListComma -> <empty>'
p323
g319
I0
g320
g321
I404
tp324
a(S'EnumValueListString -> ExtendedAttributeList string EnumValueListComma'
p325
S'EnumValueListString'
p326
I3
S'p_EnumValueListString'
p327
S'../../third_party/WebKit/Source/bindings/scripts/../../../../../tools/idl_parser/idl_parser.py'
p328
I410
tp329
a(S'EnumValueListString -> <empty>'
p330
g326
I0
g327
g328
I411
tp331
a(S'CallbackRest -> identifier = ReturnType ( ArgumentList ) ;'
p332
S'CallbackRest'
p333
I7
S'p_CallbackRest'
p334
S'../../third_party/WebKit/Source/bindings/scripts/../../../../../tools/idl_parser/idl_parser.py'
p335
I418
tp336
a(S'Typedef -> TYPEDEF ExtendedAttributeListNoComments Type identifier ;'
p337
S'Typedef'
p338
I5
S'p_Typedef'
p339
S'../../third_party/WebKit/Source/bindings/scripts/../../../../../tools/idl_parser/idl_parser.py'
p340
I424
tp341
a(S'Typedef -> TYPEDEF error ;'
p342
S'Typedef'
p343
I3
S'p_TypedefError'
p344
S'../../third_party/WebKit/Source/bindings/scripts/../../../../../tools/idl_parser/idl_parser.py'
p345
I429
tp346
a(S'ImplementsStatement -> identifier IMPLEMENTS identifier ;'
p347
S'ImplementsStatement'
p348
I4
S'p_ImplementsStatement'
p349
S'../../third_party/WebKit/Source/bindings/scripts/../../../../../tools/idl_parser/idl_parser.py'
p350
I434
tp351
a(S'Const -> CONST ConstType identifier = ConstValue ;'
p352
S'Const'
p353
I6
S'p_Const'
p354
S'../../third_party/WebKit/Source/bindings/scripts/../../../../../tools/idl_parser/idl_parser.py'
p355
I440
tp356
a(S'null -> NULL'
p357
S'null'
p358
I1
S'p_null'
p359
S'../../third_party/WebKit/Source/bindings/scripts/../../../../../tools/idl_parser/idl_parser.py'
p360
I458
tp361
a(S'BooleanLiteral -> TRUE'
p362
S'BooleanLiteral'
p363
I1
S'p_BooleanLiteral'
p364
S'../../third_party/WebKit/Source/bindings/scripts/../../../../../tools/idl_parser/idl_parser.py'
p365
I464
tp366
a(S'BooleanLiteral -> FALSE'
p367
g363
I1
g364
g365
I465
tp368
a(S'FloatLiteral -> float'
p369
S'FloatLiteral'
p370
I1
S'p_FloatLiteral'
p371
S'../../third_party/WebKit/Source/bindings/scripts/../../../../../tools/idl_parser/idl_parser.py'
p372
I471
tp373
a(S'FloatLiteral -> - INFINITY'
p374
g370
I2
g371
g372
I472
tp375
a(S'FloatLiteral -> INFINITY'
p376
g370
I1
g371
g372
I473
tp377
a(S'FloatLiteral -> NAN'
p378
g370
I1
g371
g372
I474
tp379
a(S'Serializer -> SERIALIZER SerializerRest'
p380
S'Serializer'
p381
I2
S'p_Serializer'
p382
S'../../third_party/WebKit/Source/bindings/scripts/../../../../../tools/idl_parser/idl_parser.py'
p383
I484
tp384
a(S'SerializerRest -> ReturnType OperationRest'
p385
S'SerializerRest'
p386
I2
S'p_SerializerRest'
p387
S'../../third_party/WebKit/Source/bindings/scripts/../../../../../tools/idl_parser/idl_parser.py'
p388
I491
tp389
a(S'SerializerRest -> = SerializationPattern ;'
p390
g386
I3
g387
g388
I492
tp391
a(S'SerializerRest -> ;'
p392
g386
I1
g387
g388
I493
tp393
a(S'SerializationPattern -> { SerializationPatternMap }'
p394
S'SerializationPattern'
p395
I3
S'p_SerializationPattern'
p396
S'../../third_party/WebKit/Source/bindings/scripts/../../../../../tools/idl_parser/idl_parser.py'
p397
I502
tp398
a(S'SerializationPattern -> [ SerializationPatternList ]'
p399
g395
I3
g396
g397
I503
tp400
a(S'SerializationPattern -> identifier'
p401
g395
I1
g396
g397
I504
tp402
a(S'SerializationPatternMap -> GETTER'
p403
S'SerializationPatternMap'
p404
I1
S'p_SerializationPatternMap'
p405
S'../../third_party/WebKit/Source/bindings/scripts/../../../../../tools/idl_parser/idl_parser.py'
p406
I515
tp407
a(S'SerializationPatternMap -> ATTRIBUTE'
p408
g404
I1
g405
g406
I516
tp409
a(S'SerializationPatternMap -> INHERIT , ATTRIBUTE'
p410
g404
I3
g405
g406
I517
tp411
a(S'SerializationPatternMap -> INHERIT Identifiers'
p412
g404
I2
g405
g406
I518
tp413
a(S'SerializationPatternMap -> identifier Identifiers'
p414
g404
I2
g405
g406
I519
tp415
a(S'SerializationPatternMap -> <empty>'
p416
g404
I0
g405
g406
I520
tp417
a(S'SerializationPatternList -> GETTER'
p418
S'SerializationPatternList'
p419
I1
S'p_SerializationPatternList'
p420
S'../../third_party/WebKit/Source/bindings/scripts/../../../../../tools/idl_parser/idl_parser.py'
p421
I540
tp422
a(S'SerializationPatternList -> identifier Identifiers'
p423
g419
I2
g420
g421
I541
tp424
a(S'SerializationPatternList -> <empty>'
p425
g419
I0
g420
g421
I542
tp426
a(S'Stringifier -> STRINGIFIER StringifierRest'
p427
S'Stringifier'
p428
I2
S'p_Stringifier'
p429
S'../../third_party/WebKit/Source/bindings/scripts/../../../../../tools/idl_parser/idl_parser.py'
p430
I553
tp431
a(S'StringifierRest -> ReadOnly AttributeRest'
p432
S'StringifierRest'
p433
I2
S'p_StringifierRest'
p434
S'../../third_party/WebKit/Source/bindings/scripts/../../../../../tools/idl_parser/idl_parser.py'
p435
I558
tp436
a(S'StringifierRest -> ReturnType OperationRest'
p437
g433
I2
g434
g435
I559
tp438
a(S'StringifierRest -> ;'
p439
g433
I1
g434
g435
I560
tp440
a(S'StaticMember -> STATIC StaticMemberRest'
p441
S'StaticMember'
p442
I2
S'p_StaticMember'
p443
S'../../third_party/WebKit/Source/bindings/scripts/../../../../../tools/idl_parser/idl_parser.py'
p444
I567
tp445
a(S'StaticMemberRest -> ReadOnly AttributeRest'
p446
S'StaticMemberRest'
p447
I2
S'p_StaticMemberRest'
p448
S'../../third_party/WebKit/Source/bindings/scripts/../../../../../tools/idl_parser/idl_parser.py'
p449
I573
tp450
a(S'StaticMemberRest -> ReturnType OperationRest'
p451
g447
I2
g448
g449
I574
tp452
a(S'ReadonlyMember -> READONLY ReadonlyMemberRest'
p453
S'ReadonlyMember'
p454
I2
S'p_ReadonlyMember'
p455
S'../../third_party/WebKit/Source/bindings/scripts/../../../../../tools/idl_parser/idl_parser.py'
p456
I583
tp457
a(S'ReadonlyMemberRest -> AttributeRest'
p458
S'ReadonlyMemberRest'
p459
I1
S'p_ReadonlyMemberRest'
p460
S'../../third_party/WebKit/Source/bindings/scripts/../../../../../tools/idl_parser/idl_parser.py'
p461
I589
tp462
a(S'ReadonlyMemberRest -> MaplikeRest'
p463
g459
I1
g460
g461
I590
tp464
a(S'ReadonlyMemberRest -> SetlikeRest'
p465
g459
I1
g460
g461
I591
tp466
a(S'ReadWriteAttribute -> INHERIT ReadOnly AttributeRest'
p467
S'ReadWriteAttribute'
p468
I3
S'p_ReadWriteAttribute'
p469
S'../../third_party/WebKit/Source/bindings/scripts/../../../../../tools/idl_parser/idl_parser.py'
p470
I596
tp471
a(S'ReadWriteAttribute -> AttributeRest'
p472
g468
I1
g469
g470
I597
tp473
a(S'AttributeRest -> ATTRIBUTE Type AttributeName ;'
p474
S'AttributeRest'
p475
I4
S'p_AttributeRest'
p476
S'../../third_party/WebKit/Source/bindings/scripts/../../../../../tools/idl_parser/idl_parser.py'
p477
I607
tp478
a(S'AttributeName -> AttributeNameKeyword'
p479
S'AttributeName'
p480
I1
S'p_AttributeName'
p481
S'../../third_party/WebKit/Source/bindings/scripts/../../../../../tools/idl_parser/idl_parser.py'
p482
I612
tp483
a(S'AttributeName -> identifier'
p484
g480
I1
g481
g482
I613
tp485
a(S'AttributeNameKeyword -> REQUIRED'
p486
S'AttributeNameKeyword'
p487
I1
S'p_AttributeNameKeyword'
p488
S'../../third_party/WebKit/Source/bindings/scripts/../../../../../tools/idl_parser/idl_parser.py'
p489
I618
tp490
a(S'ReadOnly -> READONLY'
p491
S'ReadOnly'
p492
I1
S'p_ReadOnly'
p493
S'../../third_party/WebKit/Source/bindings/scripts/../../../../../tools/idl_parser/idl_parser.py'
p494
I625
tp495
a(S'ReadOnly -> <empty>'
p496
g492
I0
g493
g494
I626
tp497
a(S'Operation -> ReturnType OperationRest'
p498
S'Operation'
p499
I2
S'p_Operation'
p500
S'../../third_party/WebKit/Source/bindings/scripts/../../../../../tools/idl_parser/idl_parser.py'
p501
I632
tp502
a(S'Operation -> SpecialOperation'
p503
g499
I1
g500
g501
I633
tp504
a(S'SpecialOperation -> Special Specials ReturnType OperationRest'
p505
S'SpecialOperation'
p506
I4
S'p_SpecialOperation'
p507
S'../../third_party/WebKit/Source/bindings/scripts/../../../../../tools/idl_parser/idl_parser.py'
p508
I642
tp509
a(S'Specials -> Special Specials'
p510
S'Specials'
p511
I2
S'p_Specials'
p512
S'../../third_party/WebKit/Source/bindings/scripts/../../../../../tools/idl_parser/idl_parser.py'
p513
I648
tp514
a(S'Specials -> <empty>'
p515
g511
I0
g512
g513
I649
tp516
a(S'Special -> GETTER'
p517
S'Special'
p518
I1
S'p_Special'
p519
S'../../third_party/WebKit/Source/bindings/scripts/../../../../../tools/idl_parser/idl_parser.py'
p520
I655
tp521
a(S'Special -> SETTER'
p522
g518
I1
g519
g520
I656
tp523
a(S'Special -> CREATOR'
p524
g518
I1
g519
g520
I657
tp525
a(S'Special -> DELETER'
p526
g518
I1
g519
g520
I658
tp527
a(S'Special -> LEGACYCALLER'
p528
g518
I1
g519
g520
I659
tp529
a(S'OperationRest -> OptionalIdentifier ( ArgumentList ) ;'
p530
S'OperationRest'
p531
I5
S'p_OperationRest'
p532
S'../../third_party/WebKit/Source/bindings/scripts/../../../../../tools/idl_parser/idl_parser.py'
p533
I664
tp534
a(S'OptionalIdentifier -> identifier'
p535
S'OptionalIdentifier'
p536
I1
S'p_OptionalIdentifier'
p537
S'../../third_party/WebKit/Source/bindings/scripts/../../../../../tools/idl_parser/idl_parser.py'
p538
I670
tp539
a(S'OptionalIdentifier -> <empty>'
p540
g536
I0
g537
g538
I671
tp541
a(S'ArgumentList -> Argument Arguments'
p542
S'ArgumentList'
p543
I2
S'p_ArgumentList'
p544
S'../../third_party/WebKit/Source/bindings/scripts/../../../../../tools/idl_parser/idl_parser.py'
p545
I679
tp546
a(S'ArgumentList -> <empty>'
p547
g543
I0
g544
g545
I680
tp548
a(S'ArgumentList -> error'
p549
S'ArgumentList'
p550
I1
S'p_ArgumentListError'
p551
S'../../third_party/WebKit/Source/bindings/scripts/../../../../../tools/idl_parser/idl_parser.py'
p552
I686
tp553
a(S'Arguments -> , Argument Arguments'
p554
S'Arguments'
p555
I3
S'p_Arguments'
p556
S'../../third_party/WebKit/Source/bindings/scripts/../../../../../tools/idl_parser/idl_parser.py'
p557
I691
tp558
a(S'Arguments -> <empty>'
p559
g555
I0
g556
g557
I692
tp560
a(S'Arguments -> , error'
p561
S'Arguments'
p562
I2
S'p_ArgumentsError'
p563
S'../../third_party/WebKit/Source/bindings/scripts/../../../../../tools/idl_parser/idl_parser.py'
p564
I698
tp565
a(S'Argument -> ExtendedAttributeList OptionalOrRequiredArgument'
p566
S'Argument'
p567
I2
S'p_Argument'
p568
S'../../third_party/WebKit/Source/bindings/scripts/../../../../../tools/idl_parser/idl_parser.py'
p569
I703
tp570
a(S'OptionalOrRequiredArgument -> OPTIONAL Type ArgumentName Default'
p571
S'OptionalOrRequiredArgument'
p572
I4
S'p_OptionalOrRequiredArgument'
p573
S'../../third_party/WebKit/Source/bindings/scripts/../../../../../tools/idl_parser/idl_parser.py'
p574
I709
tp575
a(S'OptionalOrRequiredArgument -> Type Ellipsis ArgumentName'
p576
g572
I3
g573
g574
I710
tp577
a(S'ArgumentName -> ArgumentNameKeyword'
p578
S'ArgumentName'
p579
I1
S'p_ArgumentName'
p580
S'../../third_party/WebKit/Source/bindings/scripts/../../../../../tools/idl_parser/idl_parser.py'
p581
I720
tp582
a(S'ArgumentName -> identifier'
p583
g579
I1
g580
g581
I721
tp584
a(S'Ellipsis -> ELLIPSIS'
p585
S'Ellipsis'
p586
I1
S'p_Ellipsis'
p587
S'../../third_party/WebKit/Source/bindings/scripts/../../../../../tools/idl_parser/idl_parser.py'
p588
I726
tp589
a(S'Ellipsis -> <empty>'
p590
g586
I0
g587
g588
I727
tp591
a(S'ExceptionField -> Type identifier ;'
p592
S'ExceptionField'
p593
I3
S'p_ExceptionField'
p594
S'../../third_party/WebKit/Source/bindings/scripts/../../../../../tools/idl_parser/idl_parser.py'
p595
I740
tp596
a(S'ExceptionField -> error'
p597
S'ExceptionField'
p598
I1
S'p_ExceptionFieldError'
p599
S'../../third_party/WebKit/Source/bindings/scripts/../../../../../tools/idl_parser/idl_parser.py'
p600
I745
tp601
a(S'Iterable -> ITERABLE < Type OptionalType > ;'
p602
S'Iterable'
p603
I6
S'p_Iterable'
p604
S'../../third_party/WebKit/Source/bindings/scripts/../../../../../tools/idl_parser/idl_parser.py'
p605
I750
tp606
a(S'Iterable -> LEGACYITERABLE < Type > ;'
p607
g603
I5
g604
g605
I751
tp608
a(S'OptionalType -> , Type'
p609
S'OptionalType'
p610
I2
S'p_OptionalType'
p611
S'../../third_party/WebKit/Source/bindings/scripts/../../../../../tools/idl_parser/idl_parser.py'
p612
I760
tp613
a(S'OptionalType -> <empty>'
p614
g610
I0
g611
g612
I761
tp615
a(S'ReadWriteMaplike -> MaplikeRest'
p616
S'ReadWriteMaplike'
p617
I1
S'p_ReadWriteMaplike'
p618
S'../../third_party/WebKit/Source/bindings/scripts/../../../../../tools/idl_parser/idl_parser.py'
p619
I767
tp620
a(S'ReadWriteSetlike -> SetlikeRest'
p621
S'ReadWriteSetlike'
p622
I1
S'p_ReadWriteSetlike'
p623
S'../../third_party/WebKit/Source/bindings/scripts/../../../../../tools/idl_parser/idl_parser.py'
p624
I772
tp625
a(S'MaplikeRest -> MAPLIKE < Type , Type > ;'
p626
S'MaplikeRest'
p627
I7
S'p_MaplikeRest'
p628
S'../../third_party/WebKit/Source/bindings/scripts/../../../../../tools/idl_parser/idl_parser.py'
p629
I777
tp630
a(S'SetlikeRest -> SETLIKE < Type > ;'
p631
S'SetlikeRest'
p632
I5
S'p_SetlikeRest'
p633
S'../../third_party/WebKit/Source/bindings/scripts/../../../../../tools/idl_parser/idl_parser.py'
p634
I783
tp635
a(S'ExtendedAttributeListNoComments -> [ ExtendedAttribute ExtendedAttributes ]'
p636
S'ExtendedAttributeListNoComments'
p637
I4
S'p_ExtendedAttributeListNoComments'
p638
S'../../third_party/WebKit/Source/bindings/scripts/../../../../../tools/idl_parser/idl_parser.py'
p639
I788
tp640
a(S'ExtendedAttributeListNoComments -> <empty>'
p641
g637
I0
g638
g639
I789
tp642
a(S'ArgumentNameKeyword -> ATTRIBUTE'
p643
S'ArgumentNameKeyword'
p644
I1
S'p_ArgumentNameKeyword'
p645
S'../../third_party/WebKit/Source/bindings/scripts/../../../../../tools/idl_parser/idl_parser.py'
p646
I830
tp647
a(S'ArgumentNameKeyword -> CALLBACK'
p648
g644
I1
g645
g646
I831
tp649
a(S'ArgumentNameKeyword -> CONST'
p650
g644
I1
g645
g646
I832
tp651
a(S'ArgumentNameKeyword -> CREATOR'
p652
g644
I1
g645
g646
I833
tp653
a(S'ArgumentNameKeyword -> DELETER'
p654
g644
I1
g645
g646
I834
tp655
a(S'ArgumentNameKeyword -> DICTIONARY'
p656
g644
I1
g645
g646
I835
tp657
a(S'ArgumentNameKeyword -> ENUM'
p658
g644
I1
g645
g646
I836
tp659
a(S'ArgumentNameKeyword -> EXCEPTION'
p660
g644
I1
g645
g646
I837
tp661
a(S'ArgumentNameKeyword -> GETTER'
p662
g644
I1
g645
g646
I838
tp663
a(S'ArgumentNameKeyword -> IMPLEMENTS'
p664
g644
I1
g645
g646
I839
tp665
a(S'ArgumentNameKeyword -> INHERIT'
p666
g644
I1
g645
g646
I840
tp667
a(S'ArgumentNameKeyword -> LEGACYCALLER'
p668
g644
I1
g645
g646
I841
tp669
a(S'ArgumentNameKeyword -> PARTIAL'
p670
g644
I1
g645
g646
I842
tp671
a(S'ArgumentNameKeyword -> SERIALIZER'
p672
g644
I1
g645
g646
I843
tp673
a(S'ArgumentNameKeyword -> SETTER'
p674
g644
I1
g645
g646
I844
tp675
a(S'ArgumentNameKeyword -> STATIC'
p676
g644
I1
g645
g646
I845
tp677
a(S'ArgumentNameKeyword -> STRINGIFIER'
p678
g644
I1
g645
g646
I846
tp679
a(S'ArgumentNameKeyword -> TYPEDEF'
p680
g644
I1
g645
g646
I847
tp681
a(S'ArgumentNameKeyword -> UNRESTRICTED'
p682
g644
I1
g645
g646
I848
tp683
a(S'Type -> SingleType'
p684
S'Type'
p685
I1
S'p_Type'
p686
S'../../third_party/WebKit/Source/bindings/scripts/../../../../../tools/idl_parser/idl_parser.py'
p687
I855
tp688
a(S'Type -> UnionType TypeSuffix'
p689
g685
I2
g686
g687
I856
tp690
a(S'SingleType -> NonAnyType'
p691
S'SingleType'
p692
I1
S'p_SingleType'
p693
S'../../third_party/WebKit/Source/bindings/scripts/../../../../../tools/idl_parser/idl_parser.py'
p694
I864
tp695
a(S'SingleType -> ANY TypeSuffixStartingWithArray'
p696
g692
I2
g693
g694
I865
tp697
a(S'UnionType -> ( UnionMemberType OR UnionMemberType UnionMemberTypes )'
p698
S'UnionType'
p699
I6
S'p_UnionType'
p700
S'../../third_party/WebKit/Source/bindings/scripts/../../../../../tools/idl_parser/idl_parser.py'
p701
I873
tp702
a(S'UnionMemberType -> NonAnyType'
p703
S'UnionMemberType'
p704
I1
S'p_UnionMemberType'
p705
S'../../third_party/WebKit/Source/bindings/scripts/../../../../../tools/idl_parser/idl_parser.py'
p706
I879
tp707
a(S'UnionMemberType -> UnionType TypeSuffix'
p708
g704
I2
g705
g706
I880
tp709
a(S'UnionMemberType -> ANY [ ] TypeSuffix'
p710
g704
I4
g705
g706
I881
tp711
a(S'UnionMemberTypes -> OR UnionMemberType UnionMemberTypes'
p712
S'UnionMemberTypes'
p713
I3
S'p_UnionMemberTypes'
p714
S'../../third_party/WebKit/Source/bindings/scripts/../../../../../tools/idl_parser/idl_parser.py'
p715
I892
tp716
a(S'UnionMemberTypes -> <empty>'
p717
g713
I0
g714
g715
I893
tp718
a(S'NonAnyType -> PrimitiveType TypeSuffix'
p719
S'NonAnyType'
p720
I2
S'p_NonAnyType'
p721
S'../../third_party/WebKit/Source/bindings/scripts/../../../../../tools/idl_parser/idl_parser.py'
p722
I902
tp723
a(S'NonAnyType -> PromiseType Null'
p724
g720
I2
g721
g722
I903
tp725
a(S'NonAnyType -> identifier TypeSuffix'
p726
g720
I2
g721
g722
I904
tp727
a(S'NonAnyType -> SEQUENCE < Type > Null'
p728
g720
I5
g721
g722
I905
tp729
a(S'NonAnyType -> FROZENARRAY < Type > Null'
p730
g720
I5
g721
g722
I906
tp731
a(S'ConstType -> PrimitiveType Null'
p732
S'ConstType'
p733
I2
S'p_ConstType'
p734
S'../../third_party/WebKit/Source/bindings/scripts/../../../../../tools/idl_parser/idl_parser.py'
p735
I922
tp736
a(S'ConstType -> identifier Null'
p737
g733
I2
g734
g735
I923
tp738
a(S'PrimitiveType -> UnsignedIntegerType'
p739
S'PrimitiveType'
p740
I1
S'p_PrimitiveType'
p741
S'../../third_party/WebKit/Source/bindings/scripts/../../../../../tools/idl_parser/idl_parser.py'
p742
I933
tp743
a(S'PrimitiveType -> UnrestrictedFloatType'
p744
g740
I1
g741
g742
I934
tp745
a(S'PrimitiveType -> BOOLEAN'
p746
g740
I1
g741
g742
I935
tp747
a(S'PrimitiveType -> BYTE'
p748
g740
I1
g741
g742
I936
tp749
a(S'PrimitiveType -> OCTET'
p750
g740
I1
g741
g742
I937
tp751
a(S'PrimitiveType -> BYTESTRING'
p752
g740
I1
g741
g742
I938
tp753
a(S'PrimitiveType -> DOMSTRING'
p754
g740
I1
g741
g742
I939
tp755
a(S'PrimitiveType -> OBJECT'
p756
g740
I1
g741
g742
I940
tp757
a(S'PrimitiveType -> DATE'
p758
g740
I1
g741
g742
I941
tp759
a(S'PrimitiveType -> REGEXP'
p760
g740
I1
g741
g742
I942
tp761
a(S'UnrestrictedFloatType -> UNRESTRICTED FloatType'
p762
S'UnrestrictedFloatType'
p763
I2
S'p_UnrestrictedFloatType'
p764
S'../../third_party/WebKit/Source/bindings/scripts/../../../../../tools/idl_parser/idl_parser.py'
p765
I951
tp766
a(S'UnrestrictedFloatType -> FloatType'
p767
g763
I1
g764
g765
I952
tp768
a(S'FloatType -> FLOAT'
p769
S'FloatType'
p770
I1
S'p_FloatType'
p771
S'../../third_party/WebKit/Source/bindings/scripts/../../../../../tools/idl_parser/idl_parser.py'
p772
I963
tp773
a(S'FloatType -> DOUBLE'
p774
g770
I1
g771
g772
I964
tp775
a(S'UnsignedIntegerType -> UNSIGNED IntegerType'
p776
S'UnsignedIntegerType'
p777
I2
S'p_UnsignedIntegerType'
p778
S'../../third_party/WebKit/Source/bindings/scripts/../../../../../tools/idl_parser/idl_parser.py'
p779
I969
tp780
a(S'UnsignedIntegerType -> IntegerType'
p781
g777
I1
g778
g779
I970
tp782
a(S'IntegerType -> SHORT'
p783
S'IntegerType'
p784
I1
S'p_IntegerType'
p785
S'../../third_party/WebKit/Source/bindings/scripts/../../../../../tools/idl_parser/idl_parser.py'
p786
I978
tp787
a(S'IntegerType -> LONG OptionalLong'
p788
g784
I2
g785
g786
I979
tp789
a(S'OptionalLong -> LONG'
p790
S'OptionalLong'
p791
I1
S'p_OptionalLong'
p792
S'../../third_party/WebKit/Source/bindings/scripts/../../../../../tools/idl_parser/idl_parser.py'
p793
I987
tp794
a(S'OptionalLong -> <empty>'
p795
g791
I0
g792
g793
I988
tp796
a(S'PromiseType -> PROMISE < ReturnType >'
p797
S'PromiseType'
p798
I4
S'p_PromiseType'
p799
S'../../third_party/WebKit/Source/bindings/scripts/../../../../../tools/idl_parser/idl_parser.py'
p800
I996
tp801
a(S'PromiseType -> PROMISE'
p802
g798
I1
g799
g800
I997
tp803
a(S'TypeSuffix -> [ integer ] TypeSuffix'
p804
S'TypeSuffix'
p805
I4
S'p_TypeSuffix'
p806
S'../../third_party/WebKit/Source/bindings/scripts/../../../../../tools/idl_parser/idl_parser.py'
p807
I1010
tp808
a(S'TypeSuffix -> [ ] TypeSuffix'
p809
g805
I3
g806
g807
I1011
tp810
a(S'TypeSuffix -> ? TypeSuffixStartingWithArray'
p811
g805
I2
g806
g807
I1012
tp812
a(S'TypeSuffix -> <empty>'
p813
g805
I0
g806
g807
I1013
tp814
a(S'TypeSuffixStartingWithArray -> [ ] TypeSuffix'
p815
S'TypeSuffixStartingWithArray'
p816
I3
S'p_TypeSuffixStartingWithArray'
p817
S'../../third_party/WebKit/Source/bindings/scripts/../../../../../tools/idl_parser/idl_parser.py'
p818
I1026
tp819
a(S'TypeSuffixStartingWithArray -> <empty>'
p820
g816
I0
g817
g818
I1027
tp821
a(S'Null -> ?'
p822
S'Null'
p823
I1
S'p_Null'
p824
S'../../third_party/WebKit/Source/bindings/scripts/../../../../../tools/idl_parser/idl_parser.py'
p825
I1033
tp826
a(S'Null -> <empty>'
p827
g823
I0
g824
g825
I1034
tp828
a(S'ReturnType -> Type'
p829
S'ReturnType'
p830
I1
S'p_ReturnType'
p831
S'../../third_party/WebKit/Source/bindings/scripts/../../../../../tools/idl_parser/idl_parser.py'
p832
I1040
tp833
a(S'ReturnType -> VOID'
p834
g830
I1
g831
g832
I1041
tp835
a(S'IdentifierList -> identifier Identifiers'
p836
S'IdentifierList'
p837
I2
S'p_IdentifierList'
p838
S'../../third_party/WebKit/Source/bindings/scripts/../../../../../tools/idl_parser/idl_parser.py'
p839
I1050
tp840
a(S'Identifiers -> , identifier Identifiers'
p841
S'Identifiers'
p842
I3
S'p_Identifiers'
p843
S'../../third_party/WebKit/Source/bindings/scripts/../../../../../tools/idl_parser/idl_parser.py'
p844
I1055
tp845
a(S'Identifiers -> <empty>'
p846
g842
I0
g843
g844
I1056
tp847
a(S'ExtendedAttributeNoArgs -> identifier'
p848
S'ExtendedAttributeNoArgs'
p849
I1
S'p_ExtendedAttributeNoArgs'
p850
S'../../third_party/WebKit/Source/bindings/scripts/../../../../../tools/idl_parser/idl_parser.py'
p851
I1062
tp852
a(S'ExtendedAttributeArgList -> identifier ( ArgumentList )'
p853
S'ExtendedAttributeArgList'
p854
I4
S'p_ExtendedAttributeArgList'
p855
S'../../third_party/WebKit/Source/bindings/scripts/../../../../../tools/idl_parser/idl_parser.py'
p856
I1067
tp857
a(S'ExtendedAttributeIdent -> identifier = identifier'
p858
S'ExtendedAttributeIdent'
p859
I3
S'p_ExtendedAttributeIdent'
p860
S'../../third_party/WebKit/Source/bindings/scripts/../../../../../tools/idl_parser/idl_parser.py'
p861
I1073
tp862
a(S'ExtendedAttributeIdentList -> identifier = ( IdentifierList )'
p863
S'ExtendedAttributeIdentList'
p864
I5
S'p_ExtendedAttributeIdentList'
p865
S'../../third_party/WebKit/Source/bindings/scripts/../../../../../tools/idl_parser/idl_parser.py'
p866
I1079
tp867
a(S'ExtendedAttributeNamedArgList -> identifier = identifier ( ArgumentList )'
p868
S'ExtendedAttributeNamedArgList'
p869
I6
S'p_ExtendedAttributeNamedArgList'
p870
S'../../third_party/WebKit/Source/bindings/scripts/../../../../../tools/idl_parser/idl_parser.py'
p871
I1085
tp872
a.