(dp1
S'enumerations'
p2
(dp3
S'MIDIPortType'
p4
(lp5
S'input'
p6
aS'output'
p7
asS'AppendMode'
p8
(lp9
S'segments'
p10
aS'sequence'
p11
asS'MediaSessionAction'
p12
(lp13
S'play'
p14
aS'pause'
p15
aS'previoustrack'
p16
aS'nexttrack'
p17
aS'seekbackward'
p18
aS'seekforward'
p19
asS'OverSampleType'
p20
(lp21
S'none'
p22
aS'2x'
p23
aS'4x'
p24
asS'MIDIPortConnectionState'
p25
(lp26
S'open'
p27
aS'closed'
p28
aS'pending'
p29
asS'RequestMode'
p30
(lp31
S'navigate'
p32
aS'same-origin'
p33
aS'no-cors'
p34
aS'cors'
p35
asS'NotificationActionType'
p36
(lp37
S'button'
p38
aS'text'
p39
aNasS'MediaKeysRequirement'
p40
(lp41
S'required'
p42
aS'optional'
p43
aS'not-allowed'
p44
asS'NFCPushTarget'
p45
(lp46
S'tag'
p47
aS'peer'
p48
aS'any'
p49
asS'PresentationConnectionCloseReason'
p50
(lp51
S'error'
p52
aS'closed'
p53
aS'wentaway'
p54
asS'VREye'
p55
(lp56
S'left'
p57
aS'right'
p58
asS'RTCIceGatheringState'
p59
(lp60
S'new'
p61
aS'gathering'
p62
aS'complete'
p63
asS'OrientationType'
p64
(lp65
S'portrait-primary'
p66
aS'portrait-secondary'
p67
aS'landscape-primary'
p68
aS'landscape-secondary'
p69
asS'OffscreenRenderingContextType'
p70
(lp71
S'2d'
p72
aS'webgl'
p73
aS'webgl2'
p74
asS'RTCDataChannelState'
p75
(lp76
S'connecting'
p77
aS'open'
p78
aS'closing'
p79
aS'closed'
p80
asS'IDBDataLossAmount'
p81
(lp82
S'none'
p83
aS'total'
p84
asS'IDBObservationType'
p85
(lp86
S'add'
p87
aS'put'
p88
aS'delete'
p89
aS'clear'
p90
asS'IDBTransactionMode'
p91
(lp92
S'readonly'
p93
aS'readwrite'
p94
aS'versionchange'
p95
asS'OscillatorType'
p96
(lp97
S'sine'
p98
aS'square'
p99
aS'sawtooth'
p100
aS'triangle'
p101
aS'custom'
p102
asS'USBDirection'
p103
(lp104
S'in'
p105
aS'out'
p106
asS'USBRequestType'
p107
(lp108
S'standard'
p109
aS'class'
p110
aS'vendor'
p111
asS'RequestCredentials'
p112
(lp113
S'omit'
p114
aS'same-origin'
p115
aS'include'
p116
asS'PanningModelType'
p117
(lp118
S'equalpower'
p119
aS'HRTF'
p120
asS'ClientType'
p121
(lp122
S'window'
p123
aS'worker'
p124
aS'sharedworker'
p125
aS'all'
p126
asS'USBTransferStatus'
p127
(lp128
S'ok'
p129
aS'stall'
p130
aS'babble'
p131
asS'ReferrerPolicy'
p132
(lp133
S''
aS'no-referrer'
p134
aS'no-referrer-when-downgrade'
p135
aS'origin'
p136
aS'origin-when-cross-origin'
p137
aS'unsafe-url'
p138
asS'SensorState'
p139
(lp140
S'idle'
p141
aS'activating'
p142
aS'active'
p143
aS'errored'
p144
asS'ChannelCountMode'
p145
(lp146
S'max'
p147
aS'clamped-max'
p148
aS'explicit'
p149
asS'ChannelInterpretation'
p150
(lp151
S'speakers'
p152
aS'discrete'
p153
asS'PresentationConnectionState'
p154
(lp155
S'connected'
p156
aS'closed'
p157
aS'terminated'
p158
asS'PushEncryptionKeyName'
p159
(lp160
S'p256dh'
p161
aS'auth'
p162
asS'MediaKeyStatus'
p163
(lp164
S'usable'
p165
aS'expired'
p166
aS'released'
p167
aS'output-restricted'
p168
aS'output-downscaled'
p169
aS'status-pending'
p170
aS'internal-error'
p171
asS'RTCRtcpMuxPolicy'
p172
(lp173
S'negotiate'
p174
aS'require'
p175
asS'ServiceWorkerState'
p176
(lp177
S'installing'
p178
aS'installed'
p179
aS'activating'
p180
aS'activated'
p181
aS'redundant'
p182
asS'NotificationDirection'
p183
(lp184
S'auto'
p185
aS'ltr'
p186
aS'rtl'
p187
asS'MediaSessionPlaybackState'
p188
(lp189
S'none'
p190
aS'paused'
p191
aS'playing'
p192
asS'ResponseType'
p193
(lp194
S'basic'
p195
aS'cors'
p196
aS'default'
p197
aS'error'
p198
aS'opaque'
p199
aS'opaqueredirect'
p200
asS'MeteringMode'
p201
(lp202
S'none'
p203
aS'manual'
p204
aS'single-shot'
p205
aS'continuous'
p206
asS'AudioContextState'
p207
(lp208
S'suspended'
p209
aS'running'
p210
aS'closed'
p211
asS'MediaKeySessionType'
p212
(lp213
S'temporary'
p214
aS'persistent-license'
p215
asS'GamepadHand'
p216
(lp217
S'left'
p218
aS'right'
p219
asS'NotificationPermission'
p220
(lp221
S'default'
p222
aS'denied'
p223
aS'granted'
p224
asS'FillLightMode'
p225
(lp226
S'none'
p227
aS'off'
p228
aS'auto'
p229
aS'flash'
p230
aS'torch'
p231
asS'USBEndpointType'
p232
(lp233
S'bulk'
p234
aS'interrupt'
p235
aS'isochronous'
p236
asS'RecordingState'
p237
(lp238
S'inactive'
p239
aS'recording'
p240
aS'paused'
p241
asS'IDBCursorDirection'
p242
(lp243
S'next'
p244
aS'nextunique'
p245
aS'prev'
p246
aS'prevunique'
p247
asS'ConnectionType'
p248
(lp249
S'cellular'
p250
aS'bluetooth'
p251
aS'ethernet'
p252
aS'wifi'
p253
aS'wimax'
p254
aS'other'
p255
aS'none'
p256
aS'unknown'
p257
asS'PaymentComplete'
p258
(lp259
S'success'
p260
aS'fail'
p261
aS'unknown'
p262
asS'RTCSdpType'
p263
(lp264
S'offer'
p265
aS'pranswer'
p266
aS'answer'
p267
asS'RemotePlaybackState'
p268
(lp269
S'connecting'
p270
aS'connected'
p271
aS'disconnected'
p272
asS'OperationType'
p273
(lp274
S'silent-push'
p275
asS'TrackDefaultType'
p276
(lp277
S'audio'
p278
aS'video'
p279
aS'text'
p280
asS'BasicCardType'
p281
(lp282
S'credit'
p283
aS'debit'
p284
aS'prepaid'
p285
asS'EndOfStreamError'
p286
(lp287
S'network'
p288
aS'decode'
p289
asS'PaymentShippingType'
p290
(lp291
S'shipping'
p292
aS'delivery'
p293
aS'pickup'
p294
asS'RTCBundlePolicy'
p295
(lp296
S'balanced'
p297
aS'max-compat'
p298
aS'max-bundle'
p299
asS'VRDisplayEventReason'
p300
(lp301
S'connected'
p302
aS'disconnected'
p303
aS'navigation'
p304
aS'mounted'
p305
aS'unmounted'
p306
asS'USBRecipient'
p307
(lp308
S'device'
p309
aS'interface'
p310
aS'endpoint'
p311
aS'other'
p312
asS'RequestRedirect'
p313
(lp314
S'follow'
p315
aS'error'
p316
aS'manual'
p317
asS'PermissionName'
p318
(lp319
S'geolocation'
p320
aS'midi'
p321
aS'notifications'
p322
aS'push'
p323
aS'background-sync'
p324
asS'IDBRequestReadyState'
p325
(lp326
S'pending'
p327
aS'done'
p328
asS'BiquadFilterType'
p329
(lp330
S'lowpass'
p331
aS'highpass'
p332
aS'bandpass'
p333
aS'lowshelf'
p334
aS'highshelf'
p335
aS'peaking'
p336
aS'notch'
p337
aS'allpass'
p338
asS'RTCIceTransportPolicy'
p339
(lp340
S'none'
p341
aS'relay'
p342
aS'all'
p343
asS'RTCSignalingState'
p344
(lp345
S'stable'
p346
aS'have-local-offer'
p347
aS'have-remote-offer'
p348
aS'have-local-pranswer'
p349
aS'have-remote-pranswer'
p350
aS'closed'
p351
asS'StorageType'
p352
(lp353
S'temporary'
p354
aS'persistent'
p355
asS'OrientationLockType'
p356
(lp357
S'any'
p358
aS'natural'
p359
aS'landscape'
p360
aS'portrait'
p361
aS'portrait-primary'
p362
aS'portrait-secondary'
p363
aS'landscape-primary'
p364
aS'landscape-secondary'
p365
asS'MediaKeyMessageType'
p366
(lp367
S'license-request'
p368
aS'license-renewal'
p369
aS'license-release'
p370
asS'RequestContext'
p371
(lp372
S''
aS'audio'
p373
aS'beacon'
p374
aS'cspreport'
p375
aS'download'
p376
aS'embed'
p377
aS'eventsource'
p378
aS'favicon'
p379
aS'fetch'
p380
aS'font'
p381
aS'form'
p382
aS'frame'
p383
aS'hyperlink'
p384
aS'iframe'
p385
aS'image'
p386
aS'imageset'
p387
aS'import'
p388
aS'internal'
p389
aS'location'
p390
aS'manifest'
p391
aS'metarefresh'
p392
aS'object'
p393
aS'ping'
p394
aS'plugin'
p395
aS'prefetch'
p396
aS'script'
p397
aS'serviceworker'
p398
aS'sharedworker'
p399
aS'subresource'
p400
aS'style'
p401
aS'track'
p402
aS'video'
p403
aS'worker'
p404
aS'xmlhttprequest'
p405
aS'xslt'
p406
asS'MediaDeviceKind'
p407
(lp408
S'audioinput'
p409
aS'audiooutput'
p410
aS'videoinput'
p411
asS'ContextFrameType'
p412
(lp413
S'top-level'
p414
aS'nested'
p415
aS'auxiliary'
p416
aS'none'
p417
asS'NFCRecordType'
p418
(lp419
S'empty'
p420
aS'text'
p421
aS'url'
p422
aS'json'
p423
aS'opaque'
p424
asS'DistanceModelType'
p425
(lp426
S'linear'
p427
aS'inverse'
p428
aS'exponential'
p429
asS'ImageSmoothingQuality'
p430
(lp431
S'low'
p432
aS'medium'
p433
aS'high'
p434
asS'BinaryType'
p435
(lp436
S'blob'
p437
aS'arraybuffer'
p438
asS'PermissionState'
p439
(lp440
S'granted'
p441
aS'denied'
p442
aS'prompt'
p443
asS'MIDIPortDeviceState'
p444
(lp445
S'disconnected'
p446
aS'connected'
p447
asS'MediaStreamTrackState'
p448
(lp449
S'live'
p450
aS'muted'
p451
aS'ended'
p452
asS'CanvasFillRule'
p453
(lp454
S'nonzero'
p455
aS'evenodd'
p456
asS'RTCIceConnectionState'
p457
(lp458
S'new'
p459
aS'checking'
p460
aS'connected'
p461
aS'completed'
p462
aS'failed'
p463
aS'disconnected'
p464
aS'closed'
p465
asS'AppBannerPromptOutcome'
p466
(lp467
S'accepted'
p468
aS'dismissed'
p469
asS'NFCWatchMode'
p470
(lp471
S'web-nfc-only'
p472
aS'any'
p473
assS'union_types'
p474
c__builtin__
set
p475
((lp476
ccopy_reg
_reconstructor
p477
(cidl_types
IdlNullableType
p478
c__builtin__
object
p479
NtRp480
(dp481
S'inner_type'
p482
g477
(cidl_types
IdlUnionType
p483
g479
NtRp484
(dp485
S'member_types'
p486
(lp487
g477
(cidl_types
IdlType
p488
g479
NtRp489
(dp490
S'base_type'
p491
S'Client'
p492
sbag477
(g488
g479
NtRp493
(dp494
g491
S'ServiceWorker'
p495
sbag477
(g488
g479
NtRp496
(dp497
g491
S'MessagePort'
p498
sbasbsbag477
(g483
g479
NtRp499
(dp500
g486
(lp501
g477
(g488
g479
NtRp502
(dp503
g491
S'FormData'
p504
sbag477
(g488
g479
NtRp505
(dp506
g491
S'URLSearchParams'
p507
sbasbag477
(g483
g479
NtRp508
(dp509
g486
(lp510
g477
(g488
g479
NtRp511
(dp512
g491
S'DOMString'
p513
sbag477
(cidl_types
IdlSequenceType
p514
g479
NtRp515
(dp516
S'element_type'
p517
g477
(g488
g479
NtRp518
(dp519
g491
S'DOMString'
p520
sbsbag477
(g488
g479
NtRp521
(dp522
g491
S'ConstrainDOMStringParameters'
p523
sbasbag477
(g483
g479
NtRp524
(dp525
g486
(lp526
g477
(g488
g479
NtRp527
(dp528
g491
S'Request'
p529
sbag477
(g488
g479
NtRp530
(dp531
g491
S'USVString'
p532
sbasbag477
(g483
g479
NtRp533
(dp534
g486
(lp535
g477
(g488
g479
NtRp536
(dp537
g491
S'boolean'
p538
sbag477
(g488
g479
NtRp539
(dp540
g491
S'MediaTrackConstraints'
p541
sbasbag477
(g483
g479
NtRp542
(dp543
g486
(lp544
g477
(g488
g479
NtRp545
(dp546
g491
S'DOMString'
p547
sbag477
(g514
g479
NtRp548
(dp549
g517
g477
(g488
g479
NtRp550
(dp551
g491
S'DOMString'
p552
sbsbasbag477
(g478
g479
NtRp553
(dp554
g482
g477
(g483
g479
NtRp555
(dp556
g486
(lp557
g477
(g488
g479
NtRp558
(dp559
g491
S'ArrayBufferView'
p560
sbag477
(g488
g479
NtRp561
(dp562
g491
S'Blob'
p563
sbag477
(g488
g479
NtRp564
(dp565
g491
S'DOMString'
p566
sbag477
(g488
g479
NtRp567
(dp568
g491
S'FormData'
p569
sbasbsbag477
(g483
g479
NtRp570
(dp571
g486
(lp572
g477
(g488
g479
NtRp573
(dp574
g491
S'Dictionary'
p575
sbag477
(g488
g479
NtRp576
(dp577
g491
S'DOMString'
p578
sbasbag477
(g478
g479
NtRp579
(dp580
g482
g477
(g483
g479
NtRp581
(dp582
g486
(lp583
g477
(g488
g479
NtRp584
(dp585
g491
S'Client'
p586
sbag477
(g488
g479
NtRp587
(dp588
g491
S'ServiceWorker'
p589
sbag477
(g488
g479
NtRp590
(dp591
g491
S'MessagePort'
p592
sbasbsbag581
ag477
(g483
g479
NtRp593
(dp594
g486
(lp595
g477
(g488
g479
NtRp596
(dp597
g491
S'DOMString'
p598
sbag477
(g488
g479
NtRp599
(dp600
g491
S'ArrayBuffer'
p601
sbag477
(g488
g479
NtRp602
(dp603
g491
S'NFCMessage'
p604
sbasbag477
(g483
g479
NtRp605
(dp606
g486
(lp607
g477
(g488
g479
NtRp608
(dp609
g491
S'OffscreenCanvasRenderingContext2D'
p610
sbag477
(g488
g479
NtRp611
(dp612
g491
S'WebGLRenderingContext'
p613
sbag477
(g488
g479
NtRp614
(dp615
g491
S'WebGL2RenderingContext'
p616
sbasbag477
(g483
g479
NtRp617
(dp618
g486
(lp619
g477
(g488
g479
NtRp620
(dp621
g491
S'DOMString'
p622
sbag477
(g514
g479
NtRp623
(dp624
g517
g477
(g488
g479
NtRp625
(dp626
g491
S'DOMString'
p627
sbsbag477
(g488
g479
NtRp628
(dp629
g491
S'DOMStringList'
p630
sbasbag477
(g483
g479
NtRp631
(dp632
g486
(lp633
g477
(g488
g479
NtRp634
(dp635
g491
S'ArrayBuffer'
p636
sbag477
(g488
g479
NtRp637
(dp638
g491
S'ArrayBufferView'
p639
sbag477
(g488
g479
NtRp640
(dp641
g491
S'Dictionary'
p642
sbasbag477
(g483
g479
NtRp643
(dp644
g486
(lp645
g477
(g488
g479
NtRp646
(dp647
g491
S'long'
p648
sbag477
(g488
g479
NtRp649
(dp650
g491
S'ConstrainLongRange'
p651
sbasbag477
(g483
g479
NtRp652
(dp653
g486
(lp654
g477
(g488
g479
NtRp655
(dp656
g491
S'boolean'
p657
sbag477
(g488
g479
NtRp658
(dp659
g491
S'ConstrainBooleanParameters'
p660
sbasbag477
(g483
g479
NtRp661
(dp662
g486
(lp663
g477
(g488
g479
NtRp664
(dp665
g491
S'CSSImageValue'
p666
sbag477
(g488
g479
NtRp667
(dp668
g491
S'HTMLImageElement'
p669
sbag477
(g488
g479
NtRp670
(dp671
g491
S'HTMLVideoElement'
p672
sbag477
(g488
g479
NtRp673
(dp674
g491
S'HTMLCanvasElement'
p675
sbag477
(g488
g479
NtRp676
(dp677
g491
S'ImageBitmap'
p678
sbag477
(g488
g479
NtRp679
(dp680
g491
S'OffscreenCanvas'
p681
sbasbag477
(g478
g479
NtRp682
(dp683
g482
g477
(g483
g479
NtRp684
(dp685
g486
(lp686
g477
(g488
g479
NtRp687
(dp688
g491
S'DOMString'
p689
sbag477
(g514
g479
NtRp690
(dp691
g517
g477
(g488
g479
NtRp692
(dp693
g491
S'DOMString'
p694
sbsbasbsbag477
(g483
g479
NtRp695
(dp696
g486
(lp697
g477
(g488
g479
NtRp698
(dp699
g491
S'DOMString'
p700
sbag477
(g488
g479
NtRp701
(dp702
g491
S'unsigned long'
p703
sbasbag477
(g483
g479
NtRp704
(dp705
g486
(lp706
g477
(g488
g479
NtRp707
(dp708
g491
S'CanvasRenderingContext2D'
p709
sbag477
(g488
g479
NtRp710
(dp711
g491
S'WebGLRenderingContext'
p712
sbag477
(g488
g479
NtRp713
(dp714
g491
S'WebGL2RenderingContext'
p715
sbag477
(g488
g479
NtRp716
(dp717
g491
S'ImageBitmapRenderingContext'
p718
sbasbag555
ag477
(g483
g479
NtRp719
(dp720
g486
(lp721
g477
(g488
g479
NtRp722
(dp723
g491
S'ArrayBuffer'
p724
sbag477
(g488
g479
NtRp725
(dp726
g491
S'ArrayBufferView'
p727
sbag477
(g488
g479
NtRp728
(dp729
g491
S'USVString'
p730
sbasbag477
(g483
g479
NtRp731
(dp732
g486
(lp733
g477
(g488
g479
NtRp734
(dp735
g491
S'DOMString'
p736
sbag477
(g488
g479
NtRp737
(dp738
g491
S'CanvasGradient'
p739
sbag477
(g488
g479
NtRp740
(dp741
g491
S'CanvasPattern'
p742
sbasbag477
(g483
g479
NtRp743
(dp744
g486
(lp745
g477
(g488
g479
NtRp746
(dp747
g491
S'HTMLCanvasElement'
p748
sbag477
(g488
g479
NtRp749
(dp750
g491
S'OffscreenCanvas'
p751
sbasbag477
(g483
g479
NtRp752
(dp753
g486
(lp754
g477
(g488
g479
NtRp755
(dp756
g491
S'double'
p757
sbag477
(g488
g479
NtRp758
(dp759
g491
S'ConstrainDoubleRange'
p760
sbasbag477
(g483
g479
NtRp761
(dp762
g486
(lp763
g477
(g488
g479
NtRp764
(dp765
g491
S'RTCIceCandidateInit'
p766
sbag477
(g488
g479
NtRp767
(dp768
g491
S'RTCIceCandidate'
p769
sbasbag477
(g483
g479
NtRp770
(dp771
g486
(lp772
g477
(g488
g479
NtRp773
(dp774
g491
S'unsigned long'
p775
sbag477
(g514
g479
NtRp776
(dp777
g517
g477
(g488
g479
NtRp778
(dp779
g491
S'unsigned long'
p780
sbsbasbatRp781
sS'typedefs'
p782
(dp783
S'ConstrainBoolean'
p784
g477
(cidl_definitions
IdlTypedef
p785
g479
NtRp786
(dp787
S'idl_type'
p788
g652
sS'name'
p789
g784
sbsS'GLintptr'
p790
g477
(g785
g479
NtRp791
(dp792
g788
g477
(g488
g479
NtRp793
(dp794
g491
S'long long'
p795
sbsg789
g790
sbsS'GLuint'
p796
g477
(g785
g479
NtRp797
(dp798
g788
g477
(g488
g479
NtRp799
(dp800
g491
S'unsigned long'
p801
sbsg789
g796
sbsS'GLsizei'
p802
g477
(g785
g479
NtRp803
(dp804
g788
g477
(g488
g479
NtRp805
(dp806
g491
S'long'
p807
sbsg789
g802
sbsS'NFCRecordData'
p808
g477
(g785
g479
NtRp809
(dp810
g788
g477
(g488
g479
NtRp811
(dp812
g491
S'any'
p813
sbsg789
g808
sbsS'RequestInfo'
p814
g477
(g785
g479
NtRp815
(dp816
g788
g524
sg789
g814
sbsS'GLushort'
p817
g477
(g785
g479
NtRp818
(dp819
g788
g477
(g488
g479
NtRp820
(dp821
g491
S'unsigned short'
p822
sbsg789
g817
sbsS'OpenEndedDictionary'
p823
g477
(g785
g479
NtRp824
(dp825
g788
g477
(g488
g479
NtRp826
(dp827
g491
S'Dictionary'
p828
sbsg789
g823
sbsS'ConstrainDOMString'
p829
g477
(g785
g479
NtRp830
(dp831
g788
g508
sg789
g829
sbsS'BluetoothServiceUUID'
p832
g477
(g785
g479
NtRp833
(dp834
g788
g477
(g483
g479
NtRp835
(dp836
g486
(lp837
g477
(g488
g479
NtRp838
(dp839
g491
S'DOMString'
p840
sbag477
(g488
g479
NtRp841
(dp842
g491
S'unsigned long'
p843
sbasbsg789
g832
sbsS'BluetoothCharacteristicUUID'
p844
g477
(g785
g479
NtRp845
(dp846
g788
g477
(g483
g479
NtRp847
(dp848
g486
(lp849
g477
(g488
g479
NtRp850
(dp851
g491
S'DOMString'
p852
sbag477
(g488
g479
NtRp853
(dp854
g491
S'unsigned long'
p855
sbasbsg789
g844
sbsS'ConstrainLong'
p856
g477
(g785
g479
NtRp857
(dp858
g788
g643
sg789
g856
sbsS'AlgorithmIdentifier'
p859
g477
(g785
g479
NtRp860
(dp861
g788
g570
sg789
g859
sbsS'KeyUsage'
p862
g477
(g785
g479
NtRp863
(dp864
g788
g477
(g488
g479
NtRp865
(dp866
g491
S'DOMString'
p867
sbsg789
g862
sbsS'ConstrainDouble'
p868
g477
(g785
g479
NtRp869
(dp870
g788
g752
sg789
g868
sbsS'GLshort'
p871
g477
(g785
g479
NtRp872
(dp873
g788
g477
(g488
g479
NtRp874
(dp875
g491
S'short'
p876
sbsg789
g871
sbsS'MediaProvider'
p877
g477
(g785
g479
NtRp878
(dp879
g788
g477
(g488
g479
NtRp880
(dp881
g491
S'MediaStream'
p882
sbsg789
g877
sbsS'GLubyte'
p883
g477
(g785
g479
NtRp884
(dp885
g788
g477
(g488
g479
NtRp886
(dp887
g491
S'octet'
p888
sbsg789
g883
sbsS'RenderingContext'
p889
g477
(g785
g479
NtRp890
(dp891
g788
g704
sg789
g889
sbsS'OffscreenRenderingContext'
p892
g477
(g785
g479
NtRp893
(dp894
g788
g605
sg789
g892
sbsS'CanvasImageSource'
p895
g477
(g785
g479
NtRp896
(dp897
g788
g661
sg789
g895
sbsS'GLint64'
p898
g477
(g785
g479
NtRp899
(dp900
g788
g477
(g488
g479
NtRp901
(dp902
g491
S'long long'
p903
sbsg789
g898
sbsS'GLenum'
p904
g477
(g785
g479
NtRp905
(dp906
g788
g477
(g488
g479
NtRp907
(dp908
g491
S'unsigned long'
p909
sbsg789
g904
sbsS'CredentialBodyType'
p910
g477
(g785
g479
NtRp911
(dp912
g788
g499
sg789
g910
sbsS'PushMessageDataInit'
p913
g477
(g785
g479
NtRp914
(dp915
g788
g719
sg789
g913
sbsS'UUID'
p916
g477
(g785
g479
NtRp917
(dp918
g788
g477
(g488
g479
NtRp919
(dp920
g491
S'DOMString'
p921
sbsg789
g916
sbsS'VRSource'
p922
g477
(g785
g479
NtRp923
(dp924
g788
g477
(g488
g479
NtRp925
(dp926
g491
S'HTMLCanvasElement'
p927
sbsg789
g922
sbsS'GLint'
p928
g477
(g785
g479
NtRp929
(dp930
g788
g477
(g488
g479
NtRp931
(dp932
g491
S'long'
p933
sbsg789
g928
sbsS'NFCPushMessage'
p934
g477
(g785
g479
NtRp935
(dp936
g788
g593
sg789
g934
sbsS'GLbitfield'
p937
g477
(g785
g479
NtRp938
(dp939
g788
g477
(g488
g479
NtRp940
(dp941
g491
S'unsigned long'
p942
sbsg789
g937
sbsS'GLuint64'
p943
g477
(g785
g479
NtRp944
(dp945
g788
g477
(g488
g479
NtRp946
(dp947
g491
S'unsigned long long'
p948
sbsg789
g943
sbsS'GLsizeiptr'
p949
g477
(g785
g479
NtRp950
(dp951
g788
g477
(g488
g479
NtRp952
(dp953
g491
S'long long'
p954
sbsg789
g949
sbsS'KeyFormat'
p955
g477
(g785
g479
NtRp956
(dp957
g788
g477
(g488
g479
NtRp958
(dp959
g491
S'DOMString'
p960
sbsg789
g955
sbsS'GLfloat'
p961
g477
(g785
g479
NtRp962
(dp963
g788
g477
(g488
g479
NtRp964
(dp965
g491
S'unrestricted float'
p966
sbsg789
g961
sbsS'BluetoothDescriptorUUID'
p967
g477
(g785
g479
NtRp968
(dp969
g788
g477
(g483
g479
NtRp970
(dp971
g486
(lp972
g477
(g488
g479
NtRp973
(dp974
g491
S'DOMString'
p975
sbag477
(g488
g479
NtRp976
(dp977
g491
S'unsigned long'
p978
sbasbsg789
g967
sbsS'GLclampf'
p979
g477
(g785
g479
NtRp980
(dp981
g788
g477
(g488
g479
NtRp982
(dp983
g491
S'unrestricted float'
p984
sbsg789
g979
sbsS'GLbyte'
p985
g477
(g785
g479
NtRp986
(dp987
g788
g477
(g488
g479
NtRp988
(dp989
g491
S'byte'
p990
sbsg789
g985
sbsS'ObjectArray'
p991
g477
(g785
g479
NtRp992
(dp993
g788
g477
(g514
g479
NtRp994
(dp995
g517
g477
(g488
g479
NtRp996
(dp997
g491
g813
sbsbsg789
g991
sbsS'GLuint64EXT'
p998
g477
(g785
g479
NtRp999
(dp1000
g788
g477
(g488
g479
NtRp1001
(dp1002
g491
S'unsigned long long'
p1003
sbsg789
S'GLuint64EXT'
p1004
sbsS'Megabit'
p1005
g477
(g785
g479
NtRp1006
(dp1007
g788
g477
(g488
g479
NtRp1008
(dp1009
g491
S'unrestricted double'
p1010
sbsg789
g1005
sbsS'GLboolean'
p1011
g477
(g785
g479
NtRp1012
(dp1013
g788
g477
(g488
g479
NtRp1014
(dp1015
g491
S'boolean'
p1016
sbsg789
g1011
sbssS'callback_functions'
p1017
(dp1018
S'IDBObserverCallback'
p1019
(dp1020
S'component_dir'
p1021
S'modules'
p1022
sS'callback_function'
p1023
g477
(cidl_definitions
IdlCallbackFunction
p1024
g479
NtRp1025
(dp1026
g788
g477
(g488
g479
NtRp1027
(dp1028
g491
S'void'
p1029
sbsg789
g1019
sS'extended_attributes'
p1030
(dp1031
sS'arguments'
p1032
(lp1033
g477
(cidl_definitions
IdlArgument
p1034
g479
NtRp1035
(dp1036
S'default_value'
p1037
Nsg789
S'changes'
p1038
sg1030
(dp1039
sg788
g477
(g488
g479
NtRp1040
(dp1041
g491
S'IDBObserverChanges'
p1042
sbsS'is_optional'
p1043
NsS'is_variadic'
p1044
I00
sbasbsS'full_path'
p1045
S'/media/code_dev/code_prj/blink_db_4.0_git/blink_db_for_tbs_for_chromium_57/blink_core/lib/chromium_org/third_party/WebKit/Source/modules/indexeddb/IDBObserver.idl'
p1046
ssS'RemotePlaybackAvailabilityCallback'
p1047
(dp1048
g1021
S'modules'
p1049
sg1023
g477
(g1024
g479
NtRp1050
(dp1051
g788
g477
(g488
g479
NtRp1052
(dp1053
g491
S'void'
p1054
sbsg789
g1047
sg1030
(dp1055
sg1032
(lp1056
g477
(g1034
g479
NtRp1057
(dp1058
g1037
Nsg789
S'available'
p1059
sg1030
(dp1060
sg788
g477
(g488
g479
NtRp1061
(dp1062
g491
S'boolean'
p1063
sbsg1043
Nsg1044
I00
sbasbsg1045
S'/media/code_dev/code_prj/blink_db_4.0_git/blink_db_for_tbs_for_chromium_57/blink_core/lib/chromium_org/third_party/WebKit/Source/modules/remoteplayback/RemotePlayback.idl'
p1064
ssS'MediaSessionActionHandler'
p1065
(dp1066
g1021
S'modules'
p1067
sg1023
g477
(g1024
g479
NtRp1068
(dp1069
g788
g477
(g488
g479
NtRp1070
(dp1071
g491
S'void'
p1072
sbsg789
g1065
sg1030
(dp1073
sg1032
(lp1074
sbsg1045
S'/media/code_dev/code_prj/blink_db_4.0_git/blink_db_for_tbs_for_chromium_57/blink_core/lib/chromium_org/third_party/WebKit/Source/modules/mediasession/MediaSession.idl'
p1075
sss.