(dp1
S'AnimationWorkletGlobalScope'
p2
(lp3
S'Worklet'
p4
aS'AnimationWorklet'
p5
asS'AudioWorkletGlobalScope'
p6
(lp7
S'Worklet'
p8
aS'AudioWorklet'
p9
asS'PaintWorkletGlobalScope'
p10
(lp11
S'Worklet'
p12
aS'PaintWorklet'
p13
asS'Window'
p14
(lp15
S'Window'
p16
asS'DedicatedWorkerGlobalScope'
p17
(lp18
S'Worker'
p19
aS'DedicatedWorker'
p20
asS'SharedWorkerGlobalScope'
p21
(lp22
S'Worker'
p23
aS'SharedWorker'
p24
asS'ServiceWorkerGlobalScope'
p25
(lp26
S'Worker'
p27
aS'ServiceWorker'
p28
asS'CompositorWorkerGlobalScope'
p29
(lp30
S'CompositorWorker'
p31
as.